Certificate:
    Data:
        Version: 3 (0x2)
        Serial Number: 268435683 (0x100000e3)
    Signature Algorithm: sha1WithRSAEncryption
        Issuer: C=DE, ST=Hessen, O=privacyidea, CN=CA001
        Validity
            Not Before: Apr 26 09:14:01 2016 GMT
            Not After : Apr 26 09:14:01 2017 GMT
        Subject: OU=realm1, CN=cornelius/emailAddress=user@localhost.localdomain
        Subject Public Key Info:
            Public Key Algorithm: rsaEncryption
                Public-Key: (2048 bit)
                Modulus:
                    00:e0:9f:9f:ba:d2:b9:b3:ec:70:76:7a:6d:17:04:
                    05:34:fb:63:87:51:73:af:94:ce:bd:7d:1f:1f:77:
                    bb:62:f0:2d:93:bc:83:05:c2:e4:0f:d7:d3:4f:b9:
                    cf:d5:f0:4b:1d:90:92:0a:95:86:98:18:49:07:2e:
                    f0:04:6c:f4:a3:20:c0:a4:90:a2:81:d3:e8:a8:9c:
                    2a:b4:3e:67:6b:38:5b:e8:d7:ef:61:26:18:c6:8a:
                    e9:ab:a0:c9:5d:60:a7:ba:14:71:ef:10:28:ce:71:
                    b2:38:00:e2:d1:b7:53:d7:8f:82:b0:db:18:53:60:
                    e0:f0:af:a4:40:3c:ee:e2:e1:cf:19:16:05:fb:cf:
                    e3:d3:b0:3d:d8:2d:fa:39:a7:02:b4:c2:b2:ac:a1:
                    dc:80:8f:fc:30:01:20:d7:92:7a:35:ec:bf:ad:7a:
                    08:fb:f7:35:81:0f:95:f6:af:e1:01:1f:52:48:36:
                    c4:da:fd:04:6a:03:41:4c:4b:33:0f:14:5e:d4:7c:
                    da:6c:25:b7:d9:6f:0c:67:60:9f:9c:9e:46:2c:ac:
                    84:87:4f:62:e8:c5:3f:08:94:ac:45:ff:a4:91:0c:
                    1d:68:80:b3:ec:e5:07:22:63:32:a6:cc:49:0b:b1:
                    ed:68:fa:6c:89:b1:41:53:72:46:2b:b5:61:7b:b3:
                    3c:1d
                Exponent: 65537 (0x10001)
        X509v3 extensions:
            X509v3 Key Usage: 
                Digital Signature, Key Encipherment
            X509v3 Basic Constraints: 
                CA:FALSE
            Netscape Cert Type: 
                SSL Server
            Netscape Comment: 
                OpenSSL Generated Server Certificate
            X509v3 Subject Key Identifier: 
                E2:0D:D1:D8:4B:49:C0:70:90:CD:05:FA:E2:CC:EB:E0:12:9D:D4:57
            X509v3 Authority Key Identifier: 
                keyid:F4:A7:C0:CC:91:46:AF:64:F3:91:F2:27:F8:C8:B2:6F:8A:87:32:73
                DirName:/C=DE/ST=Hessen/O=privacyidea/CN=CA001
                serial:FB:C8:EB:AC:83:CD:12:07

            X509v3 Extended Key Usage: 
                TLS Web Server Authentication
    Signature Algorithm: sha1WithRSAEncryption
         01:c9:af:2b:50:5c:3e:83:6a:00:d3:41:89:38:ff:01:6a:60:
         1b:24:0d:f6:7c:a4:8f:21:0c:11:a4:2a:14:8f:00:30:fd:78:
         2a:4e:82:1b:20:10:f1:38:f6:a8:55:45:1e:7c:92:43:42:a7:
         22:99:f4:01:7f:d4:c2:b0:2d:5d:68:fb:ae:56:e1:42:e0:c8:
         99:03:dd:56:cb:2d:6c:7a:58:82:76:99:48:ac:a6:8a:c4:4d:
         9e:c0:03:b3:a5:99:ee:e6:5b:96:0b:68:cd:d6:2b:e9:c8:cc:
         5c:a8:4c:df:77:06:17:5d:33:43:fd:7a:3f:f2:25:b7:30:42:
         84:c1:5f:c8:ba:01:b7:fb:76:4a:29:25:b4:ac:ce:82:03:7c:
         e1:90:95:98:0d:6d:8b:93:ef:86:42:5f:1a:5f:18:fb:2d:1e:
         eb:98:12:58:59:a3:66:70:ca:a0:c9:c7:9e:6e:8c:7c:96:42:
         44:91:78:91:a8:20:4a:9b:8c:8c:eb:f8:41:86:7c:74:9e:2f:
         87:1e:6a:ce:3d:76:03:bc:f4:31:2a:ad:5a:eb:69:fb:a7:06:
         ff:9f:59:1c:f6:1c:75:ec:b3:43:15:81:63:cb:aa:78:84:ba:
         07:a8:e6:74:2a:43:cb:d6:bf:0f:f6:28:51:04:87:46:79:80:
         51:3f:3c:31
-----BEGIN CERTIFICATE-----
MIIEIjCCAwqgAwIBAgIEEAAA4zANBgkqhkiG9w0BAQUFADBEMQswCQYDVQQGEwJE
RTEPMA0GA1UECAwGSGVzc2VuMRQwEgYDVQQKDAtwcml2YWN5aWRlYTEOMAwGA1UE
AwwFQ0EwMDEwHhcNMTYwNDI2MDkxNDAxWhcNMTcwNDI2MDkxNDAxWjBQMQ8wDQYD
VQQLEwZyZWFsbTExEjAQBgNVBAMTCWNvcm5lbGl1czEpMCcGCSqGSIb3DQEJARYa
dXNlckBsb2NhbGhvc3QubG9jYWxkb21haW4wggEiMA0GCSqGSIb3DQEBAQUAA4IB
DwAwggEKAoIBAQDgn5+60rmz7HB2em0XBAU0+2OHUXOvlM69fR8fd7ti8C2TvIMF
wuQP19NPuc/V8EsdkJIKlYaYGEkHLvAEbPSjIMCkkKKB0+ionCq0PmdrOFvo1+9h
JhjGiumroMldYKe6FHHvECjOcbI4AOLRt1PXj4Kw2xhTYODwr6RAPO7i4c8ZFgX7
z+PTsD3YLfo5pwK0wrKsodyAj/wwASDXkno17L+tegj79zWBD5X2r+EBH1JINsTa
/QRqA0FMSzMPFF7UfNpsJbfZbwxnYJ+cnkYsrISHT2LoxT8IlKxF/6SRDB1ogLPs
5QciYzKmzEkLse1o+myJsUFTckYrtWF7szwdAgMBAAGjggEOMIIBCjALBgNVHQ8E
BAMCBaAwCQYDVR0TBAIwADARBglghkgBhvhCAQEEBAMCBkAwMwYJYIZIAYb4QgEN
BCYWJE9wZW5TU0wgR2VuZXJhdGVkIFNlcnZlciBDZXJ0aWZpY2F0ZTAdBgNVHQ4E
FgQU4g3R2EtJwHCQzQX64szr4BKd1FcwdAYDVR0jBG0wa4AU9KfAzJFGr2TzkfIn
+Miyb4qHMnOhSKRGMEQxCzAJBgNVBAYTAkRFMQ8wDQYDVQQIDAZIZXNzZW4xFDAS
BgNVBAoMC3ByaXZhY3lpZGVhMQ4wDAYDVQQDDAVDQTAwMYIJAPvI66yDzRIHMBMG
A1UdJQQMMAoGCCsGAQUFBwMBMA0GCSqGSIb3DQEBBQUAA4IBAQABya8rUFw+g2oA
00GJOP8BamAbJA32fKSPIQwRpCoUjwAw/XgqToIbIBDxOPaoVUUefJJDQqcimfQB
f9TCsC1daPuuVuFC4MiZA91Wyy1seliCdplIrKaKxE2ewAOzpZnu5luWC2jN1ivp
yMxcqEzfdwYXXTND/Xo/8iW3MEKEwV/IugG3+3ZKKSW0rM6CA3zhkJWYDW2Lk++G
Ql8aXxj7LR7rmBJYWaNmcMqgyceebox8lkJEkXiRqCBKm4yM6/hBhnx0ni+HHmrO
PXYDvPQxKq1a62n7pwb/n1kc9hx17LNDFYFjy6p4hLoHqOZ0KkPL1r8P9ihRBIdG
eYBRPzwx
-----END CERTIFICATE-----
