Certificate:
    Data:
        Version: 3 (0x2)
        Serial Number: 268435701 (0x100000f5)
    Signature Algorithm: sha1WithRSAEncryption
        Issuer: C=DE, ST=Hessen, O=privacyidea, CN=CA001
        Validity
            Not Before: Apr 26 12:53:17 2016 GMT
            Not After : Apr 26 12:53:17 2017 GMT
        Subject: OU=realm1, CN=cornelius/emailAddress=user@localhost.localdomain
        Subject Public Key Info:
            Public Key Algorithm: rsaEncryption
                Public-Key: (2048 bit)
                Modulus:
                    00:b9:05:b0:db:b8:48:99:2d:47:55:6f:7b:69:5e:
                    e0:7d:2f:f8:aa:3a:12:5d:8e:c9:72:93:f6:17:fd:
                    68:84:8e:4d:6f:7e:6a:31:43:4d:b0:03:0d:ba:b5:
                    49:fa:e5:b4:38:6e:46:94:5e:03:bc:fc:75:d5:d6:
                    30:f1:07:98:ae:1b:cf:b6:48:d9:9b:e7:29:92:32:
                    0e:a2:fb:7f:b6:c2:69:12:1f:96:a9:d1:b3:3e:9d:
                    1c:8b:03:a6:17:49:74:72:58:f2:7f:44:d2:16:d7:
                    81:fa:ef:71:cd:b6:9d:11:00:2b:90:b4:68:2b:2f:
                    8e:c1:62:71:b3:83:1c:a7:29:b9:73:05:2e:71:7a:
                    42:bb:c4:bf:2a:e3:db:79:b2:f7:85:a2:10:e0:8b:
                    23:83:98:0d:ee:2a:fe:7e:82:de:6a:ea:9f:9b:f4:
                    62:e2:1f:c9:9b:79:3b:1c:12:a5:53:7a:55:74:36:
                    b3:94:10:8e:75:d4:a9:54:8c:48:65:7f:0e:2c:24:
                    32:41:c1:d4:38:f0:16:12:3d:e7:99:1c:15:44:89:
                    c7:10:36:4d:54:55:d6:03:3a:b9:db:ec:d3:b1:99:
                    35:33:58:72:fc:73:f6:02:06:aa:1e:5d:ed:a3:5a:
                    dd:66:bb:e5:fa:89:ef:1d:12:b7:e8:d5:44:70:b6:
                    7b:2d
                Exponent: 65537 (0x10001)
        X509v3 extensions:
            X509v3 Key Usage: 
                Digital Signature, Key Encipherment
            X509v3 Basic Constraints: 
                CA:FALSE
            Netscape Cert Type: 
                SSL Server
            Netscape Comment: 
                OpenSSL Generated Server Certificate
            X509v3 Subject Key Identifier: 
                74:0E:AA:91:82:6F:A8:3E:BE:F8:C5:D8:75:68:73:DA:FC:97:87:F7
            X509v3 Authority Key Identifier: 
                keyid:F4:A7:C0:CC:91:46:AF:64:F3:91:F2:27:F8:C8:B2:6F:8A:87:32:73
                DirName:/C=DE/ST=Hessen/O=privacyidea/CN=CA001
                serial:FB:C8:EB:AC:83:CD:12:07

            X509v3 Extended Key Usage: 
                TLS Web Server Authentication
    Signature Algorithm: sha1WithRSAEncryption
         57:43:55:33:08:6e:a9:a7:37:38:55:d8:21:a6:ab:32:88:ce:
         70:77:9d:4b:e3:ab:5a:d7:3e:5b:e2:21:4f:89:12:63:70:90:
         4c:be:df:85:6f:0a:20:16:70:95:21:6f:0b:e3:7c:45:b0:f7:
         0f:dc:3b:e1:e7:87:e6:40:73:77:00:60:d3:51:8f:f5:00:03:
         b2:22:a9:52:17:2e:ca:62:29:8f:9b:97:b7:39:80:1e:8f:31:
         26:e5:25:c4:9b:52:66:7e:0b:02:3c:6f:e8:db:d1:a1:e4:d5:
         b7:b8:ec:39:b7:1e:37:ab:91:b0:a5:69:bd:49:e5:96:ca:dc:
         a6:d3:d8:53:03:df:0b:18:21:a7:7f:5d:5b:c6:41:7c:4a:9a:
         de:fc:7c:25:9e:53:c1:47:ee:3a:32:1f:69:96:52:82:e5:17:
         4e:2d:ee:32:98:0b:73:56:81:79:3a:91:3c:85:56:fa:a5:09:
         14:df:c3:e9:23:a6:45:50:05:e7:c8:d4:9b:10:a0:f3:51:2a:
         5b:ac:29:9d:c7:dc:87:7d:a9:10:8e:59:5a:a9:77:8c:c5:20:
         95:71:04:9b:a1:a3:00:07:b0:65:8e:c6:75:f0:42:ae:90:6d:
         67:b4:b7:78:77:6a:c6:0b:ed:8a:5f:9e:ad:ce:9d:c2:e5:d2:
         36:86:ce:cc
-----BEGIN CERTIFICATE-----
MIIEIjCCAwqgAwIBAgIEEAAA9TANBgkqhkiG9w0BAQUFADBEMQswCQYDVQQGEwJE
RTEPMA0GA1UECAwGSGVzc2VuMRQwEgYDVQQKDAtwcml2YWN5aWRlYTEOMAwGA1UE
AwwFQ0EwMDEwHhcNMTYwNDI2MTI1MzE3WhcNMTcwNDI2MTI1MzE3WjBQMQ8wDQYD
VQQLEwZyZWFsbTExEjAQBgNVBAMTCWNvcm5lbGl1czEpMCcGCSqGSIb3DQEJARYa
dXNlckBsb2NhbGhvc3QubG9jYWxkb21haW4wggEiMA0GCSqGSIb3DQEBAQUAA4IB
DwAwggEKAoIBAQC5BbDbuEiZLUdVb3tpXuB9L/iqOhJdjslyk/YX/WiEjk1vfmox
Q02wAw26tUn65bQ4bkaUXgO8/HXV1jDxB5iuG8+2SNmb5ymSMg6i+3+2wmkSH5ap
0bM+nRyLA6YXSXRyWPJ/RNIW14H673HNtp0RACuQtGgrL47BYnGzgxynKblzBS5x
ekK7xL8q49t5sveFohDgiyODmA3uKv5+gt5q6p+b9GLiH8mbeTscEqVTelV0NrOU
EI511KlUjEhlfw4sJDJBwdQ48BYSPeeZHBVEiccQNk1UVdYDOrnb7NOxmTUzWHL8
c/YCBqoeXe2jWt1mu+X6ie8dErfo1URwtnstAgMBAAGjggEOMIIBCjALBgNVHQ8E
BAMCBaAwCQYDVR0TBAIwADARBglghkgBhvhCAQEEBAMCBkAwMwYJYIZIAYb4QgEN
BCYWJE9wZW5TU0wgR2VuZXJhdGVkIFNlcnZlciBDZXJ0aWZpY2F0ZTAdBgNVHQ4E
FgQUdA6qkYJvqD6++MXYdWhz2vyXh/cwdAYDVR0jBG0wa4AU9KfAzJFGr2TzkfIn
+Miyb4qHMnOhSKRGMEQxCzAJBgNVBAYTAkRFMQ8wDQYDVQQIDAZIZXNzZW4xFDAS
BgNVBAoMC3ByaXZhY3lpZGVhMQ4wDAYDVQQDDAVDQTAwMYIJAPvI66yDzRIHMBMG
A1UdJQQMMAoGCCsGAQUFBwMBMA0GCSqGSIb3DQEBBQUAA4IBAQBXQ1UzCG6ppzc4
VdghpqsyiM5wd51L46ta1z5b4iFPiRJjcJBMvt+FbwogFnCVIW8L43xFsPcP3Dvh
54fmQHN3AGDTUY/1AAOyIqlSFy7KYimPm5e3OYAejzEm5SXEm1JmfgsCPG/o29Gh
5NW3uOw5tx43q5GwpWm9SeWWytym09hTA98LGCGnf11bxkF8Spre/HwlnlPBR+46
Mh9pllKC5RdOLe4ymAtzVoF5OpE8hVb6pQkU38PpI6ZFUAXnyNSbEKDzUSpbrCmd
x9yHfakQjllaqXeMxSCVcQSboaMAB7BljsZ18EKukG1ntLd4d2rGC+2KX56tzp3C
5dI2hs7M
-----END CERTIFICATE-----
