Certificate:
    Data:
        Version: 3 (0x2)
        Serial Number: 268435666 (0x100000d2)
    Signature Algorithm: sha1WithRSAEncryption
        Issuer: C=DE, ST=Hessen, O=privacyidea, CN=CA001
        Validity
            Not Before: Aug 11 13:46:09 2016 GMT
            Not After : Aug 11 13:46:09 2017 GMT
        Subject: CN=Steve Test/emailAddress=steve@openssl.org
        Subject Public Key Info:
            Public Key Algorithm: rsaEncryption
                Public-Key: (2048 bit)
                Modulus:
                    00:d2:81:89:20:51:48:0f:73:f4:11:32:24:d5:1f:
                    1c:fd:5c:f5:b6:e6:c5:f0:52:81:dc:d2:af:66:4a:
                    7c:93:31:61:5c:af:d1:6d:06:70:03:60:7c:72:0c:
                    88:dd:49:cd:9e:02:6c:d2:5a:d7:53:0f:f3:da:be:
                    69:64:b5:0f:0c:00:e3:b3:50:47:a3:b3:9b:ba:13:
                    50:d6:58:5a:4b:ab:39:e0:11:ca:0a:27:67:03:78:
                    22:66:6d:92:1e:1b:5c:49:ae:e6:6b:d1:8e:3b:9d:
                    06:d3:c6:ac:4d:53:43:10:ab:e8:96:c1:87:82:97:
                    99:8f:20:d3:99:12:37:31:84:e1:8a:ff:29:03:5f:
                    22:90:3e:7f:9b:e0:20:c1:ad:dc:ae:4c:39:1a:31:
                    96:17:02:8c:b2:d9:b4:0d:20:12:9b:7d:86:54:fd:
                    33:fd:c1:2a:62:46:f8:60:96:cf:6e:01:6f:22:df:
                    13:47:e7:97:ec:05:72:23:a3:62:f8:fa:ef:ac:9c:
                    72:f0:37:cb:2f:37:cf:90:a8:27:51:86:c6:d7:78:
                    08:8f:7e:25:a2:15:70:a2:fb:1c:b6:15:5e:a0:97:
                    8b:81:4c:09:28:8a:27:3b:94:bc:71:db:5b:71:37:
                    9a:2b:16:e0:6f:b5:c9:f5:4b:4f:20:ba:65:cf:af:
                    ad:ad
                Exponent: 65537 (0x10001)
        X509v3 extensions:
            X509v3 Key Usage: 
                Digital Signature, Key Encipherment
            X509v3 Basic Constraints: 
                CA:FALSE
            Netscape Cert Type: 
                SSL Server
            Netscape Comment: 
                OpenSSL Generated Server Certificate
            X509v3 Subject Key Identifier: 
                E5:25:6D:3E:AF:0D:DD:3F:4C:F2:45:19:39:D5:14:DB:7E:9C:C0:AD
            X509v3 Authority Key Identifier: 
                keyid:F4:A7:C0:CC:91:46:AF:64:F3:91:F2:27:F8:C8:B2:6F:8A:87:32:73
                DirName:/C=DE/ST=Hessen/O=privacyidea/CN=CA001
                serial:FB:C8:EB:AC:83:CD:12:07

            X509v3 Extended Key Usage: 
                TLS Web Server Authentication
    Signature Algorithm: sha1WithRSAEncryption
         b7:7e:48:ac:ea:f1:19:0e:bb:da:cb:64:b7:74:89:31:7a:05:
         81:8e:c9:1c:65:a7:69:37:63:87:4b:e7:68:ad:1f:f3:0b:d8:
         bf:fb:df:aa:12:03:01:ae:c7:2a:d4:ed:7f:94:6e:85:af:c2:
         e2:9f:42:17:6c:b0:9e:02:3f:b1:68:4d:55:ab:2f:c6:12:02:
         b9:8b:d4:c1:27:7b:cc:cc:2a:7c:86:72:4b:6b:ce:50:f9:58:
         6d:f0:18:84:f4:bb:6e:87:56:21:6a:e9:eb:c2:5c:22:df:36:
         16:70:f4:a0:d4:5d:b9:18:d5:b4:39:3f:3b:68:84:e0:65:60:
         53:57:34:65:d7:a5:4c:6e:c4:d7:1e:0f:81:fe:d6:3d:02:02:
         96:39:05:a7:b8:ad:bd:12:11:62:02:1b:59:6c:34:da:aa:ba:
         be:eb:26:46:64:12:83:2e:3a:88:41:7b:e2:51:65:af:05:f1:
         31:06:5d:0c:38:8d:f4:26:15:4c:4d:66:2d:77:7b:b3:e9:9d:
         e8:cf:57:50:9a:38:90:92:02:0d:72:bb:ea:8a:10:e3:8a:22:
         75:c9:dc:1c:fe:30:51:e4:8d:68:2d:c2:e4:0a:37:28:98:25:
         e5:3b:52:f1:e3:fb:83:20:2f:15:65:60:69:bd:a0:9a:51:2c:
         e7:07:bd:bc
-----BEGIN CERTIFICATE-----
MIIECTCCAvGgAwIBAgIEEAAA0jANBgkqhkiG9w0BAQUFADBEMQswCQYDVQQGEwJE
RTEPMA0GA1UECAwGSGVzc2VuMRQwEgYDVQQKDAtwcml2YWN5aWRlYTEOMAwGA1UE
AwwFQ0EwMDEwHhcNMTYwODExMTM0NjA5WhcNMTcwODExMTM0NjA5WjA3MRMwEQYD
VQQDEwpTdGV2ZSBUZXN0MSAwHgYJKoZIhvcNAQkBFhFzdGV2ZUBvcGVuc3NsLm9y
ZzCCASIwDQYJKoZIhvcNAQEBBQADggEPADCCAQoCggEBANKBiSBRSA9z9BEyJNUf
HP1c9bbmxfBSgdzSr2ZKfJMxYVyv0W0GcANgfHIMiN1JzZ4CbNJa11MP89q+aWS1
DwwA47NQR6Ozm7oTUNZYWkurOeARygonZwN4ImZtkh4bXEmu5mvRjjudBtPGrE1T
QxCr6JbBh4KXmY8g05kSNzGE4Yr/KQNfIpA+f5vgIMGt3K5MORoxlhcCjLLZtA0g
Ept9hlT9M/3BKmJG+GCWz24BbyLfE0fnl+wFciOjYvj676yccvA3yy83z5CoJ1GG
xtd4CI9+JaIVcKL7HLYVXqCXi4FMCSiKJzuUvHHbW3E3misW4G+1yfVLTyC6Zc+v
ra0CAwEAAaOCAQ4wggEKMAsGA1UdDwQEAwIFoDAJBgNVHRMEAjAAMBEGCWCGSAGG
+EIBAQQEAwIGQDAzBglghkgBhvhCAQ0EJhYkT3BlblNTTCBHZW5lcmF0ZWQgU2Vy
dmVyIENlcnRpZmljYXRlMB0GA1UdDgQWBBTlJW0+rw3dP0zyRRk51RTbfpzArTB0
BgNVHSMEbTBrgBT0p8DMkUavZPOR8if4yLJviocyc6FIpEYwRDELMAkGA1UEBhMC
REUxDzANBgNVBAgMBkhlc3NlbjEUMBIGA1UECgwLcHJpdmFjeWlkZWExDjAMBgNV
BAMMBUNBMDAxggkA+8jrrIPNEgcwEwYDVR0lBAwwCgYIKwYBBQUHAwEwDQYJKoZI
hvcNAQEFBQADggEBALd+SKzq8RkOu9rLZLd0iTF6BYGOyRxlp2k3Y4dL52itH/ML
2L/736oSAwGuxyrU7X+UboWvwuKfQhdssJ4CP7FoTVWrL8YSArmL1MEne8zMKnyG
cktrzlD5WG3wGIT0u26HViFq6evCXCLfNhZw9KDUXbkY1bQ5PztohOBlYFNXNGXX
pUxuxNceD4H+1j0CApY5Bae4rb0SEWICG1lsNNqqur7rJkZkEoMuOohBe+JRZa8F
8TEGXQw4jfQmFUxNZi13e7PpnejPV1CaOJCSAg1yu+qKEOOKInXJ3Bz+MFHkjWgt
wuQKNyiYJeU7UvHj+4MgLxVlYGm9oJpRLOcHvbw=
-----END CERTIFICATE-----
