Certificate:
    Data:
        Version: 3 (0x2)
        Serial Number: 268435687 (0x100000e7)
    Signature Algorithm: sha1WithRSAEncryption
        Issuer: C=DE, ST=Hessen, O=privacyidea, CN=CA001
        Validity
            Not Before: Apr 26 09:15:01 2016 GMT
            Not After : Apr 26 09:15:01 2017 GMT
        Subject: OU=realm1, CN=cornelius/emailAddress=user@localhost.localdomain
        Subject Public Key Info:
            Public Key Algorithm: rsaEncryption
                Public-Key: (2048 bit)
                Modulus:
                    00:c0:26:1f:bb:01:f2:84:e8:ff:00:72:5a:05:8b:
                    54:a4:47:4d:68:b8:7a:16:52:47:59:c9:08:77:9c:
                    23:f9:0c:a8:3f:8c:91:c2:2f:4a:3a:ca:2b:12:ea:
                    3d:dc:4d:14:25:1c:ba:0a:a0:43:9f:bd:c1:fd:b9:
                    77:f9:7f:b5:ae:2b:a0:a5:3b:99:f7:6c:b4:7e:f8:
                    39:05:cd:8f:b5:36:11:10:0a:f9:8c:e7:b2:e4:60:
                    a1:63:df:62:a0:f1:8d:2e:fb:7e:75:fd:9e:87:c8:
                    e6:ef:3f:15:b8:c9:ef:47:e4:1a:a4:d4:01:d9:18:
                    e0:13:35:c2:ce:29:dd:fc:0d:c8:d8:ab:81:3b:f1:
                    44:8e:5c:29:b0:42:e5:98:93:bb:e8:7e:fe:f1:56:
                    68:7d:e0:27:9d:9a:1f:f1:7a:0b:1d:45:90:11:de:
                    05:c7:ca:a8:7e:f4:4e:bc:78:33:79:61:77:b1:f7:
                    c1:de:9e:15:0d:ca:90:59:16:05:65:42:e5:ec:7d:
                    be:0a:3e:1d:37:da:a2:b7:0c:a6:cc:ec:8a:6a:50:
                    0c:8b:a3:8b:55:57:02:06:61:6a:0d:f1:63:43:5e:
                    3b:d6:b7:c0:f8:75:f9:7d:91:76:91:a8:6a:3a:28:
                    91:6e:19:e7:35:9c:1c:9f:65:ac:31:5e:3e:b1:b4:
                    ab:0f
                Exponent: 65537 (0x10001)
        X509v3 extensions:
            X509v3 Key Usage: 
                Digital Signature, Key Encipherment
            X509v3 Basic Constraints: 
                CA:FALSE
            Netscape Cert Type: 
                SSL Server
            Netscape Comment: 
                OpenSSL Generated Server Certificate
            X509v3 Subject Key Identifier: 
                CD:69:BF:D3:7A:13:6F:41:A5:96:5E:EC:57:63:A4:62:44:B1:43:6C
            X509v3 Authority Key Identifier: 
                keyid:F4:A7:C0:CC:91:46:AF:64:F3:91:F2:27:F8:C8:B2:6F:8A:87:32:73
                DirName:/C=DE/ST=Hessen/O=privacyidea/CN=CA001
                serial:FB:C8:EB:AC:83:CD:12:07

            X509v3 Extended Key Usage: 
                TLS Web Server Authentication
    Signature Algorithm: sha1WithRSAEncryption
         39:bd:69:3d:e7:ad:4d:b8:cd:19:15:40:9e:60:ea:7c:cd:a5:
         81:5f:69:4b:5f:9b:24:f3:72:37:80:c0:b4:f6:12:8b:ef:5f:
         16:e2:72:51:2a:bb:d7:60:40:52:94:1b:79:46:26:e9:cc:9a:
         ed:fd:fa:65:ce:be:96:50:64:d1:fd:f9:a3:95:d4:4a:a7:dc:
         5f:9f:e8:78:c5:a8:ba:7e:8f:1e:3e:49:c0:3b:73:29:de:57:
         48:b9:00:1b:ed:12:84:8a:66:7f:58:b9:83:05:33:7b:54:58:
         bf:8b:26:74:0f:c3:09:c7:2c:df:5b:6f:ef:e3:98:d3:4e:89:
         a2:f0:b0:43:fc:4b:d6:2a:b9:f8:c1:f9:f8:8f:14:3f:29:98:
         c1:7d:de:ba:24:bc:50:fd:ce:6a:82:5f:59:56:6f:d2:6a:54:
         ec:70:d5:55:38:d9:66:bb:c0:1b:76:e4:db:fa:6f:40:c5:cc:
         e0:e2:2a:cb:38:7f:f6:69:70:78:a4:47:48:c6:af:86:b3:11:
         0f:d3:d6:f4:18:65:6b:ff:ca:60:81:4e:0a:9a:0b:f8:f0:8f:
         5e:b7:1f:e7:3e:99:81:b8:18:85:c2:e2:13:0b:ba:b7:eb:bc:
         57:5f:c5:d3:a5:0d:5c:cd:d6:27:56:40:51:34:5e:98:23:7b:
         5d:26:d6:94
-----BEGIN CERTIFICATE-----
MIIEIjCCAwqgAwIBAgIEEAAA5zANBgkqhkiG9w0BAQUFADBEMQswCQYDVQQGEwJE
RTEPMA0GA1UECAwGSGVzc2VuMRQwEgYDVQQKDAtwcml2YWN5aWRlYTEOMAwGA1UE
AwwFQ0EwMDEwHhcNMTYwNDI2MDkxNTAxWhcNMTcwNDI2MDkxNTAxWjBQMQ8wDQYD
VQQLEwZyZWFsbTExEjAQBgNVBAMTCWNvcm5lbGl1czEpMCcGCSqGSIb3DQEJARYa
dXNlckBsb2NhbGhvc3QubG9jYWxkb21haW4wggEiMA0GCSqGSIb3DQEBAQUAA4IB
DwAwggEKAoIBAQDAJh+7AfKE6P8AcloFi1SkR01ouHoWUkdZyQh3nCP5DKg/jJHC
L0o6yisS6j3cTRQlHLoKoEOfvcH9uXf5f7WuK6ClO5n3bLR++DkFzY+1NhEQCvmM
57LkYKFj32Kg8Y0u+351/Z6HyObvPxW4ye9H5Bqk1AHZGOATNcLOKd38DcjYq4E7
8USOXCmwQuWYk7vofv7xVmh94Cedmh/xegsdRZAR3gXHyqh+9E68eDN5YXex98He
nhUNypBZFgVlQuXsfb4KPh032qK3DKbM7IpqUAyLo4tVVwIGYWoN8WNDXjvWt8D4
dfl9kXaRqGo6KJFuGec1nByfZawxXj6xtKsPAgMBAAGjggEOMIIBCjALBgNVHQ8E
BAMCBaAwCQYDVR0TBAIwADARBglghkgBhvhCAQEEBAMCBkAwMwYJYIZIAYb4QgEN
BCYWJE9wZW5TU0wgR2VuZXJhdGVkIFNlcnZlciBDZXJ0aWZpY2F0ZTAdBgNVHQ4E
FgQUzWm/03oTb0Glll7sV2OkYkSxQ2wwdAYDVR0jBG0wa4AU9KfAzJFGr2TzkfIn
+Miyb4qHMnOhSKRGMEQxCzAJBgNVBAYTAkRFMQ8wDQYDVQQIDAZIZXNzZW4xFDAS
BgNVBAoMC3ByaXZhY3lpZGVhMQ4wDAYDVQQDDAVDQTAwMYIJAPvI66yDzRIHMBMG
A1UdJQQMMAoGCCsGAQUFBwMBMA0GCSqGSIb3DQEBBQUAA4IBAQA5vWk9561NuM0Z
FUCeYOp8zaWBX2lLX5sk83I3gMC09hKL718W4nJRKrvXYEBSlBt5RibpzJrt/fpl
zr6WUGTR/fmjldRKp9xfn+h4xai6fo8ePknAO3Mp3ldIuQAb7RKEimZ/WLmDBTN7
VFi/iyZ0D8MJxyzfW2/v45jTTomi8LBD/EvWKrn4wfn4jxQ/KZjBfd66JLxQ/c5q
gl9ZVm/SalTscNVVONlmu8AbduTb+m9Axczg4irLOH/2aXB4pEdIxq+GsxEP09b0
GGVr/8pggU4Kmgv48I9etx/nPpmBuBiFwuITC7q367xXX8XTpQ1czdYnVkBRNF6Y
I3tdJtaU
-----END CERTIFICATE-----
