Certificate:
    Data:
        Version: 3 (0x2)
        Serial Number: 268435676 (0x100000dc)
    Signature Algorithm: sha1WithRSAEncryption
        Issuer: C=DE, ST=Hessen, O=privacyidea, CN=CA001
        Validity
            Not Before: May 29 11:31:20 2016 GMT
            Not After : May 29 11:31:20 2017 GMT
        Subject: OU=realm1, CN=cornelius/emailAddress=user@localhost.localdomain
        Subject Public Key Info:
            Public Key Algorithm: rsaEncryption
                Public-Key: (2048 bit)
                Modulus:
                    00:c4:ef:4b:5f:c1:63:12:d3:d6:76:b0:ba:81:4a:
                    99:70:7a:0e:74:13:cc:26:cd:19:a5:cf:08:1d:15:
                    21:63:75:2e:4f:ba:86:00:5d:5e:06:fd:bd:32:31:
                    97:8b:f3:29:39:06:da:f4:4d:65:9d:3b:05:06:b4:
                    f9:b8:63:93:85:ba:09:33:eb:2b:9a:95:2a:c0:d9:
                    7a:61:48:1a:c0:13:52:65:f6:d9:40:bc:69:85:68:
                    25:9c:d8:e3:98:8a:1e:24:72:cf:65:2c:fc:f2:15:
                    c0:74:20:e3:1e:4f:dd:20:ad:ff:c3:03:c1:1b:58:
                    91:9d:d3:c4:34:4b:02:3b:88:d9:36:ff:81:cf:4f:
                    5d:ff:21:06:02:62:d1:83:53:aa:52:ed:d7:61:ac:
                    97:a4:09:fc:33:01:6a:a4:09:02:1a:74:36:eb:70:
                    74:f8:54:51:66:6d:db:e3:0b:8d:c4:cb:f6:cd:52:
                    1f:36:17:cb:eb:ba:66:9d:be:86:12:73:eb:cc:33:
                    4c:9d:3b:c5:52:d3:9e:5d:03:7b:79:be:3e:36:0a:
                    53:25:c6:1e:85:8c:eb:a8:fa:2d:d3:f7:46:40:38:
                    d9:1e:d2:83:cb:ea:ca:b0:ba:83:41:60:f9:10:3b:
                    d1:3c:69:ac:0c:fd:a5:0e:7a:9e:b0:c4:4e:ff:14:
                    cf:a7
                Exponent: 65537 (0x10001)
        X509v3 extensions:
            X509v3 Key Usage: 
                Digital Signature, Key Encipherment
            X509v3 Basic Constraints: 
                CA:FALSE
            Netscape Cert Type: 
                SSL Server
            Netscape Comment: 
                OpenSSL Generated Server Certificate
            X509v3 Subject Key Identifier: 
                D1:B8:99:E0:0E:CC:ED:23:48:E7:64:FE:33:A3:FA:0E:D6:E5:09:C3
            X509v3 Authority Key Identifier: 
                keyid:F4:A7:C0:CC:91:46:AF:64:F3:91:F2:27:F8:C8:B2:6F:8A:87:32:73
                DirName:/C=DE/ST=Hessen/O=privacyidea/CN=CA001
                serial:FB:C8:EB:AC:83:CD:12:07

            X509v3 Extended Key Usage: 
                TLS Web Server Authentication
    Signature Algorithm: sha1WithRSAEncryption
         90:58:5a:a9:33:0b:87:b1:fa:fb:81:70:a6:ba:2d:a9:88:4a:
         19:dd:29:87:f6:c8:65:3c:75:43:6b:85:6c:8b:f3:97:f1:11:
         3e:a5:ac:f0:1f:6c:54:9c:64:59:29:f0:39:6d:11:a9:e5:44:
         32:92:16:1e:87:3f:2f:10:e8:15:3c:f0:f8:05:e8:87:7f:91:
         a5:56:da:89:38:c1:f0:3c:37:9b:2a:3c:a4:28:88:2f:af:03:
         34:e0:fd:43:33:e2:33:13:d6:7a:6e:c7:3d:7a:ea:ee:20:92:
         d9:f6:57:67:6b:eb:a2:9d:91:82:64:38:12:fc:c6:9c:1d:32:
         45:21:15:9b:b5:a2:4c:1b:7c:19:5d:c2:b5:ae:4c:cf:3e:85:
         8d:4d:57:f7:33:f0:71:98:65:52:ce:56:2f:b6:63:1d:93:f6:
         c5:23:c6:99:87:72:7e:83:63:bc:24:94:33:19:9f:23:e4:cc:
         ed:09:1d:e8:63:d5:55:e9:c0:4f:16:a9:aa:bb:f6:fa:5a:e9:
         ba:77:6a:92:2b:12:af:66:b8:0c:a1:7d:12:31:5e:65:c0:c3:
         15:fd:3b:b1:a2:ee:d0:09:b1:64:a6:d6:49:1c:7a:62:7b:c0:
         59:c9:c2:b0:70:58:e6:57:6d:26:72:e6:30:c2:ea:09:67:7a:
         8c:92:d3:1f
-----BEGIN CERTIFICATE-----
MIIEIjCCAwqgAwIBAgIEEAAA3DANBgkqhkiG9w0BAQUFADBEMQswCQYDVQQGEwJE
RTEPMA0GA1UECAwGSGVzc2VuMRQwEgYDVQQKDAtwcml2YWN5aWRlYTEOMAwGA1UE
AwwFQ0EwMDEwHhcNMTYwNTI5MTEzMTIwWhcNMTcwNTI5MTEzMTIwWjBQMQ8wDQYD
VQQLEwZyZWFsbTExEjAQBgNVBAMTCWNvcm5lbGl1czEpMCcGCSqGSIb3DQEJARYa
dXNlckBsb2NhbGhvc3QubG9jYWxkb21haW4wggEiMA0GCSqGSIb3DQEBAQUAA4IB
DwAwggEKAoIBAQDE70tfwWMS09Z2sLqBSplweg50E8wmzRmlzwgdFSFjdS5PuoYA
XV4G/b0yMZeL8yk5Btr0TWWdOwUGtPm4Y5OFugkz6yualSrA2XphSBrAE1Jl9tlA
vGmFaCWc2OOYih4kcs9lLPzyFcB0IOMeT90grf/DA8EbWJGd08Q0SwI7iNk2/4HP
T13/IQYCYtGDU6pS7ddhrJekCfwzAWqkCQIadDbrcHT4VFFmbdvjC43Ey/bNUh82
F8vrumadvoYSc+vMM0ydO8VS055dA3t5vj42ClMlxh6FjOuo+i3T90ZAONke0oPL
6sqwuoNBYPkQO9E8aawM/aUOep6wxE7/FM+nAgMBAAGjggEOMIIBCjALBgNVHQ8E
BAMCBaAwCQYDVR0TBAIwADARBglghkgBhvhCAQEEBAMCBkAwMwYJYIZIAYb4QgEN
BCYWJE9wZW5TU0wgR2VuZXJhdGVkIFNlcnZlciBDZXJ0aWZpY2F0ZTAdBgNVHQ4E
FgQU0biZ4A7M7SNI52T+M6P6DtblCcMwdAYDVR0jBG0wa4AU9KfAzJFGr2TzkfIn
+Miyb4qHMnOhSKRGMEQxCzAJBgNVBAYTAkRFMQ8wDQYDVQQIDAZIZXNzZW4xFDAS
BgNVBAoMC3ByaXZhY3lpZGVhMQ4wDAYDVQQDDAVDQTAwMYIJAPvI66yDzRIHMBMG
A1UdJQQMMAoGCCsGAQUFBwMBMA0GCSqGSIb3DQEBBQUAA4IBAQCQWFqpMwuHsfr7
gXCmui2piEoZ3SmH9shlPHVDa4Vsi/OX8RE+pazwH2xUnGRZKfA5bRGp5UQykhYe
hz8vEOgVPPD4BeiHf5GlVtqJOMHwPDebKjykKIgvrwM04P1DM+IzE9Z6bsc9euru
IJLZ9ldna+uinZGCZDgS/MacHTJFIRWbtaJMG3wZXcK1rkzPPoWNTVf3M/BxmGVS
zlYvtmMdk/bFI8aZh3J+g2O8JJQzGZ8j5MztCR3oY9VV6cBPFqmqu/b6Wum6d2qS
KxKvZrgMoX0SMV5lwMMV/Tuxou7QCbFkptZJHHpie8BZycKwcFjmV20mcuYwwuoJ
Z3qMktMf
-----END CERTIFICATE-----
