Certificate:
    Data:
        Version: 3 (0x2)
        Serial Number: 268435691 (0x100000eb)
    Signature Algorithm: sha1WithRSAEncryption
        Issuer: C=DE, ST=Hessen, O=privacyidea, CN=CA001
        Validity
            Not Before: Apr 26 12:43:20 2016 GMT
            Not After : Apr 26 12:43:20 2017 GMT
        Subject: OU=realm1, CN=cornelius/emailAddress=user@localhost.localdomain
        Subject Public Key Info:
            Public Key Algorithm: rsaEncryption
                Public-Key: (2048 bit)
                Modulus:
                    00:e5:7b:e2:21:d9:44:8f:d2:4e:21:58:91:b4:c2:
                    3e:01:c5:c2:1a:e7:93:97:f7:23:df:86:97:7d:c4:
                    fe:8a:1d:85:5e:2e:99:41:f7:01:79:ee:e7:95:98:
                    f2:bc:fc:4f:33:ae:20:db:7c:0f:65:56:34:70:12:
                    5e:ae:63:df:73:c2:1c:be:72:a4:8c:40:7b:84:da:
                    3e:ca:a5:2f:9c:0d:b4:c4:93:19:e9:64:4f:02:ce:
                    eb:52:cb:27:18:4d:47:46:03:d4:32:b1:91:43:ab:
                    f7:60:7a:f3:f9:b4:38:0b:5d:46:f7:9f:bf:92:65:
                    a0:3b:6e:c0:ed:d5:b3:ed:61:ee:47:ae:04:24:33:
                    54:70:fa:ff:a5:de:6f:73:0f:2b:d1:37:9b:15:d3:
                    c1:b0:7d:df:49:86:96:52:77:fd:9c:09:92:c8:9c:
                    3e:57:d8:6a:5b:2b:51:0d:f2:fa:85:2f:d4:74:fe:
                    8f:af:ad:da:d8:80:68:1d:1d:b1:a4:95:0e:33:51:
                    27:cd:0d:49:f1:6e:99:58:15:bd:c0:a6:71:4b:c4:
                    9b:d8:0c:af:bb:44:73:f3:c4:b0:d2:71:71:f5:41:
                    42:45:60:4e:98:cb:a3:ed:87:a3:fd:9e:0d:20:48:
                    f2:aa:00:3b:96:7f:49:56:19:9c:2a:eb:1c:8f:e0:
                    ac:21
                Exponent: 65537 (0x10001)
        X509v3 extensions:
            X509v3 Key Usage: 
                Digital Signature, Key Encipherment
            X509v3 Basic Constraints: 
                CA:FALSE
            Netscape Cert Type: 
                SSL Server
            Netscape Comment: 
                OpenSSL Generated Server Certificate
            X509v3 Subject Key Identifier: 
                51:25:23:57:DF:5C:91:9D:72:D7:CF:3E:36:33:3C:3D:3C:CA:4C:57
            X509v3 Authority Key Identifier: 
                keyid:F4:A7:C0:CC:91:46:AF:64:F3:91:F2:27:F8:C8:B2:6F:8A:87:32:73
                DirName:/C=DE/ST=Hessen/O=privacyidea/CN=CA001
                serial:FB:C8:EB:AC:83:CD:12:07

            X509v3 Extended Key Usage: 
                TLS Web Server Authentication
    Signature Algorithm: sha1WithRSAEncryption
         02:d4:7c:3b:a0:dc:87:13:89:72:71:40:71:d3:91:f0:63:a0:
         f8:2a:07:09:69:78:67:25:6c:1c:88:34:8f:60:8b:d2:47:3d:
         f1:1d:59:25:a5:27:e5:8d:c8:90:1a:9d:5b:a0:c9:ce:10:e3:
         c5:5a:70:8e:6e:d9:09:91:44:cb:7d:9f:55:1c:c4:0f:9d:3f:
         ce:86:61:e7:7f:01:d9:bc:71:16:3f:33:45:f4:b2:63:de:12:
         ef:40:77:af:4e:6b:54:0b:8f:37:03:55:33:a3:8d:84:3a:77:
         a0:0c:53:2a:7d:36:13:4a:de:99:77:4c:9c:a6:56:42:74:42:
         d9:65:51:29:7a:87:b4:ef:94:bf:4c:47:86:f6:b9:e9:fe:01:
         31:88:e7:73:6f:e3:e3:50:e8:fc:47:7d:c0:33:b6:ee:33:7c:
         90:9d:25:11:1b:55:e6:cf:cc:2b:f0:73:bd:c8:34:08:fe:0e:
         07:e6:57:b9:15:d0:5e:7c:e7:2a:7d:76:de:44:4e:af:5f:55:
         24:6f:8c:56:d6:dc:b7:fe:2e:f2:d8:66:86:b0:0e:3e:6a:3f:
         24:1b:54:7f:8a:12:9b:f9:5e:5a:f8:c3:8c:dc:03:34:9e:02:
         13:ac:0d:20:b4:bc:0b:bf:d1:e8:80:dd:d3:90:44:d4:dc:c0:
         f0:36:34:6b
-----BEGIN CERTIFICATE-----
MIIEIjCCAwqgAwIBAgIEEAAA6zANBgkqhkiG9w0BAQUFADBEMQswCQYDVQQGEwJE
RTEPMA0GA1UECAwGSGVzc2VuMRQwEgYDVQQKDAtwcml2YWN5aWRlYTEOMAwGA1UE
AwwFQ0EwMDEwHhcNMTYwNDI2MTI0MzIwWhcNMTcwNDI2MTI0MzIwWjBQMQ8wDQYD
VQQLEwZyZWFsbTExEjAQBgNVBAMTCWNvcm5lbGl1czEpMCcGCSqGSIb3DQEJARYa
dXNlckBsb2NhbGhvc3QubG9jYWxkb21haW4wggEiMA0GCSqGSIb3DQEBAQUAA4IB
DwAwggEKAoIBAQDle+Ih2USP0k4hWJG0wj4BxcIa55OX9yPfhpd9xP6KHYVeLplB
9wF57ueVmPK8/E8zriDbfA9lVjRwEl6uY99zwhy+cqSMQHuE2j7KpS+cDbTEkxnp
ZE8CzutSyycYTUdGA9QysZFDq/dgevP5tDgLXUb3n7+SZaA7bsDt1bPtYe5HrgQk
M1Rw+v+l3m9zDyvRN5sV08Gwfd9JhpZSd/2cCZLInD5X2GpbK1EN8vqFL9R0/o+v
rdrYgGgdHbGklQ4zUSfNDUnxbplYFb3ApnFLxJvYDK+7RHPzxLDScXH1QUJFYE6Y
y6Pth6P9ng0gSPKqADuWf0lWGZwq6xyP4KwhAgMBAAGjggEOMIIBCjALBgNVHQ8E
BAMCBaAwCQYDVR0TBAIwADARBglghkgBhvhCAQEEBAMCBkAwMwYJYIZIAYb4QgEN
BCYWJE9wZW5TU0wgR2VuZXJhdGVkIFNlcnZlciBDZXJ0aWZpY2F0ZTAdBgNVHQ4E
FgQUUSUjV99ckZ1y188+NjM8PTzKTFcwdAYDVR0jBG0wa4AU9KfAzJFGr2TzkfIn
+Miyb4qHMnOhSKRGMEQxCzAJBgNVBAYTAkRFMQ8wDQYDVQQIDAZIZXNzZW4xFDAS
BgNVBAoMC3ByaXZhY3lpZGVhMQ4wDAYDVQQDDAVDQTAwMYIJAPvI66yDzRIHMBMG
A1UdJQQMMAoGCCsGAQUFBwMBMA0GCSqGSIb3DQEBBQUAA4IBAQAC1Hw7oNyHE4ly
cUBx05HwY6D4KgcJaXhnJWwciDSPYIvSRz3xHVklpSfljciQGp1boMnOEOPFWnCO
btkJkUTLfZ9VHMQPnT/OhmHnfwHZvHEWPzNF9LJj3hLvQHevTmtUC483A1Uzo42E
OnegDFMqfTYTSt6Zd0ycplZCdELZZVEpeoe075S/TEeG9rnp/gExiOdzb+PjUOj8
R33AM7buM3yQnSURG1Xmz8wr8HO9yDQI/g4H5le5FdBefOcqfXbeRE6vX1Ukb4xW
1ty3/i7y2GaGsA4+aj8kG1R/ihKb+V5a+MOM3AM0ngITrA0gtLwLv9HogN3TkETU
3MDwNjRr
-----END CERTIFICATE-----
