Certificate:
    Data:
        Version: 3 (0x2)
        Serial Number: 268435673 (0x100000d9)
    Signature Algorithm: sha1WithRSAEncryption
        Issuer: C=DE, ST=Hessen, O=privacyidea, CN=CA001
        Validity
            Not Before: May 29 11:28:21 2016 GMT
            Not After : May 29 11:28:21 2017 GMT
        Subject: C=DE, ST=Hessen, O=privacyidea, CN=usercert
        Subject Public Key Info:
            Public Key Algorithm: rsaEncryption
                Public-Key: (2048 bit)
                Modulus:
                    00:dc:2f:d1:5f:29:97:d4:7c:c3:53:c8:30:bd:4b:
                    67:70:2c:24:6b:b8:5e:eb:21:7a:48:12:56:7c:81:
                    5c:48:75:b6:68:eb:f6:f2:98:4e:50:51:d1:7f:6c:
                    73:f3:0a:a7:ae:be:48:5e:e5:d6:e1:d9:2a:7c:32:
                    6e:4e:fd:08:f6:5a:54:49:23:73:c3:b9:07:18:d1:
                    ef:b3:ac:f8:8a:dc:94:96:a4:90:3a:8e:74:df:e6:
                    0d:37:1b:bd:5b:b7:25:1a:56:39:da:6f:91:aa:5e:
                    1c:74:f3:f9:7c:14:01:83:12:65:76:c7:bb:fe:36:
                    5b:95:e9:72:65:83:ed:3e:98:30:71:fa:87:dd:a3:
                    36:5a:30:03:2e:26:e0:61:d1:bf:02:3f:b6:06:1f:
                    4a:89:28:1c:5c:a2:ff:4e:be:94:e6:8c:e0:da:82:
                    f1:9d:29:32:48:30:73:b4:04:f6:42:1e:be:f7:e2:
                    32:32:27:3c:9d:89:2f:70:3e:85:9a:6f:5c:c5:09:
                    c0:8c:32:2f:72:22:c9:d2:95:1f:b6:ac:72:60:72:
                    b7:82:4d:6b:ce:5b:e3:00:d0:d2:2f:58:c6:e0:10:
                    e5:51:ca:4d:3b:2e:e6:7e:ab:84:d6:56:f1:93:35:
                    a0:93:64:26:81:75:2f:91:b5:16:06:38:0b:db:cc:
                    2d:07
                Exponent: 65537 (0x10001)
        X509v3 extensions:
            X509v3 Key Usage: 
                Digital Signature, Key Encipherment
            X509v3 Basic Constraints: 
                CA:FALSE
            Netscape Cert Type: 
                SSL Server
            Netscape Comment: 
                OpenSSL Generated Server Certificate
            X509v3 Subject Key Identifier: 
                FC:14:D1:F0:4B:8D:00:90:F2:F5:B8:71:9E:4E:97:C3:92:54:AD:0B
            X509v3 Authority Key Identifier: 
                keyid:F4:A7:C0:CC:91:46:AF:64:F3:91:F2:27:F8:C8:B2:6F:8A:87:32:73
                DirName:/C=DE/ST=Hessen/O=privacyidea/CN=CA001
                serial:FB:C8:EB:AC:83:CD:12:07

            X509v3 Extended Key Usage: 
                TLS Web Server Authentication
    Signature Algorithm: sha1WithRSAEncryption
         ac:27:e0:ec:30:19:cc:74:55:70:ad:e2:1a:02:d3:49:b1:f4:
         ec:10:01:0c:4f:51:38:48:4d:33:6a:89:76:8c:bf:e8:38:f5:
         f0:c3:e9:23:c6:48:ea:87:b1:f7:cd:46:1a:92:7f:0b:39:6d:
         81:d7:02:3b:60:ea:bf:46:5e:07:97:8a:c3:9d:33:b6:a3:47:
         b3:80:ab:be:7b:f3:55:8e:a5:02:e0:8e:44:e7:ea:0a:68:88:
         b6:2a:15:0a:7b:49:5a:18:01:5b:ec:b7:6d:59:03:0b:99:71:
         44:62:21:a7:d3:6c:cc:28:2f:16:a8:16:99:3b:b1:d9:31:84:
         23:b9:91:1e:f8:94:da:be:ba:9c:1e:1e:92:29:6b:80:34:39:
         15:19:bc:b0:e9:25:7f:77:76:40:83:5a:3e:60:94:66:1a:5e:
         41:88:b1:87:c3:dd:fa:3e:8e:7c:77:43:3e:68:ce:95:e7:db:
         93:22:a7:ca:7a:7e:ef:5a:ae:bb:90:36:be:b4:93:5e:5f:f3:
         17:c6:f0:d3:c0:b0:85:2f:49:9b:22:be:a3:03:50:9a:c7:75:
         65:7d:9b:0c:fc:34:d5:fe:0e:b5:07:d1:3a:fc:3e:ea:12:ce:
         74:e2:52:ff:ee:c5:14:da:4d:40:1f:9d:d6:bd:3f:85:0b:52:
         41:48:66:fb
-----BEGIN CERTIFICATE-----
MIIEGTCCAwGgAwIBAgIEEAAA2TANBgkqhkiG9w0BAQUFADBEMQswCQYDVQQGEwJE
RTEPMA0GA1UECAwGSGVzc2VuMRQwEgYDVQQKDAtwcml2YWN5aWRlYTEOMAwGA1UE
AwwFQ0EwMDEwHhcNMTYwNTI5MTEyODIxWhcNMTcwNTI5MTEyODIxWjBHMQswCQYD
VQQGEwJERTEPMA0GA1UECAwGSGVzc2VuMRQwEgYDVQQKDAtwcml2YWN5aWRlYTER
MA8GA1UEAwwIdXNlcmNlcnQwggEiMA0GCSqGSIb3DQEBAQUAA4IBDwAwggEKAoIB
AQDcL9FfKZfUfMNTyDC9S2dwLCRruF7rIXpIElZ8gVxIdbZo6/bymE5QUdF/bHPz
Cqeuvkhe5dbh2Sp8Mm5O/Qj2WlRJI3PDuQcY0e+zrPiK3JSWpJA6jnTf5g03G71b
tyUaVjnab5GqXhx08/l8FAGDEmV2x7v+NluV6XJlg+0+mDBx+ofdozZaMAMuJuBh
0b8CP7YGH0qJKBxcov9OvpTmjODagvGdKTJIMHO0BPZCHr734jIyJzydiS9wPoWa
b1zFCcCMMi9yIsnSlR+2rHJgcreCTWvOW+MA0NIvWMbgEOVRyk07LuZ+q4TWVvGT
NaCTZCaBdS+RtRYGOAvbzC0HAgMBAAGjggEOMIIBCjALBgNVHQ8EBAMCBaAwCQYD
VR0TBAIwADARBglghkgBhvhCAQEEBAMCBkAwMwYJYIZIAYb4QgENBCYWJE9wZW5T
U0wgR2VuZXJhdGVkIFNlcnZlciBDZXJ0aWZpY2F0ZTAdBgNVHQ4EFgQU/BTR8EuN
AJDy9bhxnk6Xw5JUrQswdAYDVR0jBG0wa4AU9KfAzJFGr2TzkfIn+Miyb4qHMnOh
SKRGMEQxCzAJBgNVBAYTAkRFMQ8wDQYDVQQIDAZIZXNzZW4xFDASBgNVBAoMC3By
aXZhY3lpZGVhMQ4wDAYDVQQDDAVDQTAwMYIJAPvI66yDzRIHMBMGA1UdJQQMMAoG
CCsGAQUFBwMBMA0GCSqGSIb3DQEBBQUAA4IBAQCsJ+DsMBnMdFVwreIaAtNJsfTs
EAEMT1E4SE0zaol2jL/oOPXww+kjxkjqh7H3zUYakn8LOW2B1wI7YOq/Rl4Hl4rD
nTO2o0ezgKu+e/NVjqUC4I5E5+oKaIi2KhUKe0laGAFb7LdtWQMLmXFEYiGn02zM
KC8WqBaZO7HZMYQjuZEe+JTavrqcHh6SKWuANDkVGbyw6SV/d3ZAg1o+YJRmGl5B
iLGHw936Po58d0M+aM6V59uTIqfKen7vWq67kDa+tJNeX/MXxvDTwLCFL0mbIr6j
A1Cax3VlfZsM/DTV/g61B9E6/D7qEs504lL/7sUU2k1AH53WvT+FC1JBSGb7
-----END CERTIFICATE-----
