Certificate:
    Data:
        Version: 3 (0x2)
        Serial Number: 268435688 (0x100000e8)
    Signature Algorithm: sha1WithRSAEncryption
        Issuer: C=DE, ST=Hessen, O=privacyidea, CN=CA001
        Validity
            Not Before: Apr 26 09:15:59 2016 GMT
            Not After : Apr 26 09:15:59 2017 GMT
        Subject: C=DE, ST=Hessen, O=privacyidea, CN=requester.localdomain
        Subject Public Key Info:
            Public Key Algorithm: rsaEncryption
                Public-Key: (2048 bit)
                Modulus:
                    00:cd:be:14:4f:fa:ce:01:3f:42:22:1b:1d:9c:af:
                    dd:92:d2:7f:db:6c:b7:3e:39:43:43:6b:13:03:f1:
                    05:f4:07:74:bc:76:69:28:0b:af:19:8e:d7:fc:e3:
                    cd:c6:58:f2:ca:7f:08:6d:53:fc:07:02:44:24:c6:
                    b4:34:4c:8c:04:fe:33:0e:40:e2:20:ba:02:73:5a:
                    f7:f5:4f:63:6e:cc:c6:b6:df:54:1d:37:39:7d:51:
                    36:26:5f:bd:dc:3f:a8:8b:6b:a2:ae:b6:9d:d6:21:
                    e7:df:41:b8:7a:28:2a:68:48:ca:a8:2d:ed:e1:e9:
                    46:5e:5a:72:6d:b4:84:38:87:91:fd:94:11:0b:28:
                    84:c6:c2:2f:2a:fb:01:f9:36:7a:09:75:d1:33:88:
                    3c:73:41:5b:c8:bf:94:89:70:a1:f0:c0:b9:2e:50:
                    53:1e:b1:17:64:69:f4:2d:81:e0:a9:0d:0e:32:e9:
                    ba:55:8a:85:f1:1b:6f:49:79:b4:7f:88:c3:0d:3e:
                    54:88:9b:3d:1f:38:8c:04:f3:ee:6a:63:2b:f5:c6:
                    db:b4:83:aa:c4:78:41:3a:7d:4b:e1:c8:3e:71:ca:
                    1b:61:59:ea:c6:c4:ca:32:5e:c9:e9:bf:12:29:e6:
                    c6:c3:63:fe:a0:55:da:7a:f1:60:98:4d:26:ed:fa:
                    70:2d
                Exponent: 65537 (0x10001)
        X509v3 extensions:
            X509v3 Key Usage: 
                Digital Signature, Key Encipherment
            X509v3 Basic Constraints: 
                CA:FALSE
            Netscape Cert Type: 
                SSL Server
            Netscape Comment: 
                OpenSSL Generated Server Certificate
            X509v3 Subject Key Identifier: 
                53:3F:ED:5D:09:07:B3:65:7B:AB:45:C9:24:5B:09:77:80:0A:96:ED
            X509v3 Authority Key Identifier: 
                keyid:F4:A7:C0:CC:91:46:AF:64:F3:91:F2:27:F8:C8:B2:6F:8A:87:32:73
                DirName:/C=DE/ST=Hessen/O=privacyidea/CN=CA001
                serial:FB:C8:EB:AC:83:CD:12:07

            X509v3 Extended Key Usage: 
                TLS Web Server Authentication
    Signature Algorithm: sha1WithRSAEncryption
         49:28:39:d0:a9:6f:c6:2b:e9:55:f5:cb:4b:4d:72:89:df:f4:
         00:a0:b1:0a:f9:90:3d:ee:3b:f5:e3:97:da:e5:a8:e2:c7:60:
         7d:ec:ff:f0:8e:56:a8:aa:62:c5:21:dc:93:61:f4:f2:49:1f:
         6e:9d:6d:fe:75:39:2e:46:ae:f7:c8:4f:36:95:5d:2e:8a:52:
         9f:eb:67:5a:89:00:7a:2d:50:eb:6c:29:93:e4:d1:93:71:a1:
         0f:56:f7:ed:e8:51:c8:ba:fd:1e:25:98:c9:fe:d4:59:38:13:
         05:e4:59:54:65:3d:50:8c:89:68:f5:dc:3a:89:01:24:4e:0e:
         c3:fc:12:c2:6e:0d:d7:75:87:58:ad:bd:9e:57:7d:34:46:d2:
         36:f9:64:26:5b:78:f1:46:30:be:f5:3a:e9:fd:10:79:94:66:
         3e:ba:21:46:32:a7:7c:43:fa:0a:7e:91:3b:38:59:48:39:a0:
         7e:81:0c:b9:22:a6:27:14:d0:07:ec:52:62:2d:09:2c:fa:3a:
         81:75:53:86:05:86:d0:29:05:f5:2e:3a:0a:ae:4b:6f:89:d0:
         6d:eb:81:19:ad:dd:4e:ee:71:33:e0:b7:8f:33:b2:d5:9f:89:
         fd:ae:0f:24:80:26:0d:cd:85:69:5c:71:b1:51:a2:f4:4b:f2:
         c4:d7:2e:28
-----BEGIN CERTIFICATE-----
MIIEJjCCAw6gAwIBAgIEEAAA6DANBgkqhkiG9w0BAQUFADBEMQswCQYDVQQGEwJE
RTEPMA0GA1UECAwGSGVzc2VuMRQwEgYDVQQKDAtwcml2YWN5aWRlYTEOMAwGA1UE
AwwFQ0EwMDEwHhcNMTYwNDI2MDkxNTU5WhcNMTcwNDI2MDkxNTU5WjBUMQswCQYD
VQQGEwJERTEPMA0GA1UECAwGSGVzc2VuMRQwEgYDVQQKDAtwcml2YWN5aWRlYTEe
MBwGA1UEAwwVcmVxdWVzdGVyLmxvY2FsZG9tYWluMIIBIjANBgkqhkiG9w0BAQEF
AAOCAQ8AMIIBCgKCAQEAzb4UT/rOAT9CIhsdnK/dktJ/22y3PjlDQ2sTA/EF9Ad0
vHZpKAuvGY7X/OPNxljyyn8IbVP8BwJEJMa0NEyMBP4zDkDiILoCc1r39U9jbszG
tt9UHTc5fVE2Jl+93D+oi2uirrad1iHn30G4eigqaEjKqC3t4elGXlpybbSEOIeR
/ZQRCyiExsIvKvsB+TZ6CXXRM4g8c0FbyL+UiXCh8MC5LlBTHrEXZGn0LYHgqQ0O
Mum6VYqF8RtvSXm0f4jDDT5UiJs9HziMBPPuamMr9cbbtIOqxHhBOn1L4cg+ccob
YVnqxsTKMl7J6b8SKebGw2P+oFXaevFgmE0m7fpwLQIDAQABo4IBDjCCAQowCwYD
VR0PBAQDAgWgMAkGA1UdEwQCMAAwEQYJYIZIAYb4QgEBBAQDAgZAMDMGCWCGSAGG
+EIBDQQmFiRPcGVuU1NMIEdlbmVyYXRlZCBTZXJ2ZXIgQ2VydGlmaWNhdGUwHQYD
VR0OBBYEFFM/7V0JB7Nle6tFySRbCXeACpbtMHQGA1UdIwRtMGuAFPSnwMyRRq9k
85HyJ/jIsm+KhzJzoUikRjBEMQswCQYDVQQGEwJERTEPMA0GA1UECAwGSGVzc2Vu
MRQwEgYDVQQKDAtwcml2YWN5aWRlYTEOMAwGA1UEAwwFQ0EwMDGCCQD7yOusg80S
BzATBgNVHSUEDDAKBggrBgEFBQcDATANBgkqhkiG9w0BAQUFAAOCAQEASSg50Klv
xivpVfXLS01yid/0AKCxCvmQPe479eOX2uWo4sdgfez/8I5WqKpixSHck2H08kkf
bp1t/nU5Lkau98hPNpVdLopSn+tnWokAei1Q62wpk+TRk3GhD1b37ehRyLr9HiWY
yf7UWTgTBeRZVGU9UIyJaPXcOokBJE4Ow/wSwm4N13WHWK29nld9NEbSNvlkJlt4
8UYwvvU66f0QeZRmProhRjKnfEP6Cn6ROzhZSDmgfoEMuSKmJxTQB+xSYi0JLPo6
gXVThgWG0CkF9S46Cq5Lb4nQbeuBGa3dTu5xM+C3jzOy1Z+J/a4PJIAmDc2FaVxx
sVGi9EvyxNcuKA==
-----END CERTIFICATE-----
