Certificate:
    Data:
        Version: 3 (0x2)
        Serial Number: 268435693 (0x100000ed)
    Signature Algorithm: sha1WithRSAEncryption
        Issuer: C=DE, ST=Hessen, O=privacyidea, CN=CA001
        Validity
            Not Before: Apr 26 12:45:02 2016 GMT
            Not After : Apr 26 12:45:02 2017 GMT
        Subject: OU=realm1, CN=cornelius/emailAddress=user@localhost.localdomain
        Subject Public Key Info:
            Public Key Algorithm: rsaEncryption
                Public-Key: (2048 bit)
                Modulus:
                    00:d0:30:03:c9:79:3a:0d:41:46:16:72:91:05:45:
                    41:c6:3f:ef:72:75:1a:a3:35:ae:d1:f5:76:ad:6a:
                    1f:6e:25:8c:9b:e3:5f:a0:8d:98:fb:5f:eb:3c:41:
                    a8:04:4a:9f:cf:6c:5e:3b:c6:d2:e2:2c:97:57:c5:
                    84:45:8c:17:82:6a:46:dc:05:6d:bf:a7:9d:2d:df:
                    c4:6c:66:b4:ec:83:99:ae:90:d7:22:2e:d8:c2:43:
                    96:5a:0a:5f:09:bd:47:36:84:25:cc:92:b5:7a:15:
                    a8:b7:63:2c:a0:15:26:59:4e:a7:48:66:83:6c:e4:
                    fc:4b:72:8d:f5:5f:1b:77:6c:ee:c3:0a:37:a9:94:
                    0d:7d:0d:4c:83:53:fa:6d:35:0a:01:9f:e2:dd:03:
                    dd:6f:6f:ad:cc:61:5a:55:0e:f5:8f:a0:6a:4f:f7:
                    49:e8:ca:3c:8a:db:cd:31:d9:ad:4a:82:a8:a3:49:
                    80:92:8a:5e:f2:06:5e:e2:31:0c:f8:8e:19:ef:ed:
                    5a:6f:7f:b0:ce:48:d2:8d:56:22:d0:6e:ee:3f:86:
                    b1:17:f0:24:f2:4e:93:fd:d2:93:2f:d2:d3:6e:15:
                    20:4d:42:d9:38:e3:89:38:6d:de:d7:68:9c:75:27:
                    36:c2:4f:95:2a:32:a5:ae:b7:c6:94:e0:39:1e:ef:
                    a7:43
                Exponent: 65537 (0x10001)
        X509v3 extensions:
            X509v3 Key Usage: 
                Digital Signature, Key Encipherment
            X509v3 Basic Constraints: 
                CA:FALSE
            Netscape Cert Type: 
                SSL Server
            Netscape Comment: 
                OpenSSL Generated Server Certificate
            X509v3 Subject Key Identifier: 
                8C:D5:BC:94:E0:04:5A:DB:36:AE:6A:7D:60:46:6C:C3:84:E5:2D:A9
            X509v3 Authority Key Identifier: 
                keyid:F4:A7:C0:CC:91:46:AF:64:F3:91:F2:27:F8:C8:B2:6F:8A:87:32:73
                DirName:/C=DE/ST=Hessen/O=privacyidea/CN=CA001
                serial:FB:C8:EB:AC:83:CD:12:07

            X509v3 Extended Key Usage: 
                TLS Web Server Authentication
    Signature Algorithm: sha1WithRSAEncryption
         b8:39:46:01:4d:dc:7d:a4:3a:c7:4c:49:21:23:26:78:88:af:
         d3:72:0d:d5:49:7c:14:40:d9:79:6a:a1:1c:dd:ef:ec:66:a5:
         d6:d6:76:97:48:ef:73:8a:6d:7f:79:64:b6:f7:48:9c:aa:ff:
         64:2c:78:fc:42:98:0e:22:a0:a8:76:24:63:22:7c:60:22:2a:
         bf:2a:04:2b:2e:af:bb:23:ae:2b:54:c2:9f:c5:a5:4a:f0:60:
         d3:f0:41:7b:9b:70:72:03:a3:d4:1f:0b:e5:26:48:2d:b9:c1:
         6d:23:84:47:9b:aa:bb:ab:f9:63:4d:65:74:93:2d:75:a3:0e:
         38:6e:3e:91:4e:9f:dc:84:2c:24:4c:ed:2b:45:f9:76:91:64:
         d6:f9:5c:c1:d1:a0:20:cf:50:4c:f6:10:86:f0:0c:56:1b:fe:
         84:9d:dd:29:6c:9a:40:e5:27:e5:9e:b1:e1:f2:15:27:a1:65:
         a2:f8:58:3e:37:01:e5:d2:7f:0b:9d:ee:6c:b6:f8:d9:28:d7:
         dc:b7:02:a4:c1:5f:9d:ed:f8:9e:c8:0f:38:d5:92:e3:cd:16:
         ce:9e:fb:62:3a:cb:37:62:a3:43:e4:b5:7b:cf:52:18:98:67:
         29:d6:32:88:0c:e7:2e:be:9a:5f:bf:76:dc:4d:ee:e6:d2:f0:
         21:89:1f:fd
-----BEGIN CERTIFICATE-----
MIIEIjCCAwqgAwIBAgIEEAAA7TANBgkqhkiG9w0BAQUFADBEMQswCQYDVQQGEwJE
RTEPMA0GA1UECAwGSGVzc2VuMRQwEgYDVQQKDAtwcml2YWN5aWRlYTEOMAwGA1UE
AwwFQ0EwMDEwHhcNMTYwNDI2MTI0NTAyWhcNMTcwNDI2MTI0NTAyWjBQMQ8wDQYD
VQQLEwZyZWFsbTExEjAQBgNVBAMTCWNvcm5lbGl1czEpMCcGCSqGSIb3DQEJARYa
dXNlckBsb2NhbGhvc3QubG9jYWxkb21haW4wggEiMA0GCSqGSIb3DQEBAQUAA4IB
DwAwggEKAoIBAQDQMAPJeToNQUYWcpEFRUHGP+9ydRqjNa7R9Xatah9uJYyb41+g
jZj7X+s8QagESp/PbF47xtLiLJdXxYRFjBeCakbcBW2/p50t38RsZrTsg5mukNci
LtjCQ5ZaCl8JvUc2hCXMkrV6Fai3YyygFSZZTqdIZoNs5PxLco31Xxt3bO7DCjep
lA19DUyDU/ptNQoBn+LdA91vb63MYVpVDvWPoGpP90noyjyK280x2a1KgqijSYCS
il7yBl7iMQz4jhnv7Vpvf7DOSNKNViLQbu4/hrEX8CTyTpP90pMv0tNuFSBNQtk4
44k4bd7XaJx1JzbCT5UqMqWut8aU4Dke76dDAgMBAAGjggEOMIIBCjALBgNVHQ8E
BAMCBaAwCQYDVR0TBAIwADARBglghkgBhvhCAQEEBAMCBkAwMwYJYIZIAYb4QgEN
BCYWJE9wZW5TU0wgR2VuZXJhdGVkIFNlcnZlciBDZXJ0aWZpY2F0ZTAdBgNVHQ4E
FgQUjNW8lOAEWts2rmp9YEZsw4TlLakwdAYDVR0jBG0wa4AU9KfAzJFGr2TzkfIn
+Miyb4qHMnOhSKRGMEQxCzAJBgNVBAYTAkRFMQ8wDQYDVQQIDAZIZXNzZW4xFDAS
BgNVBAoMC3ByaXZhY3lpZGVhMQ4wDAYDVQQDDAVDQTAwMYIJAPvI66yDzRIHMBMG
A1UdJQQMMAoGCCsGAQUFBwMBMA0GCSqGSIb3DQEBBQUAA4IBAQC4OUYBTdx9pDrH
TEkhIyZ4iK/Tcg3VSXwUQNl5aqEc3e/sZqXW1naXSO9zim1/eWS290icqv9kLHj8
QpgOIqCodiRjInxgIiq/KgQrLq+7I64rVMKfxaVK8GDT8EF7m3ByA6PUHwvlJkgt
ucFtI4RHm6q7q/ljTWV0ky11ow44bj6RTp/chCwkTO0rRfl2kWTW+VzB0aAgz1BM
9hCG8AxWG/6End0pbJpA5SflnrHh8hUnoWWi+Fg+NwHl0n8Lne5stvjZKNfctwKk
wV+d7fieyA841ZLjzRbOnvtiOss3YqND5LV7z1IYmGcp1jKIDOcuvppfv3bcTe7m
0vAhiR/9
-----END CERTIFICATE-----
