Certificate:
    Data:
        Version: 3 (0x2)
        Serial Number: 268435675 (0x100000db)
    Signature Algorithm: sha1WithRSAEncryption
        Issuer: C=DE, ST=Hessen, O=privacyidea, CN=CA001
        Validity
            Not Before: May 29 11:31:19 2016 GMT
            Not After : May 29 11:31:19 2017 GMT
        Subject: C=DE, ST=Hessen, O=privacyidea, CN=requester.localdomain
        Subject Public Key Info:
            Public Key Algorithm: rsaEncryption
                Public-Key: (2048 bit)
                Modulus:
                    00:cd:be:14:4f:fa:ce:01:3f:42:22:1b:1d:9c:af:
                    dd:92:d2:7f:db:6c:b7:3e:39:43:43:6b:13:03:f1:
                    05:f4:07:74:bc:76:69:28:0b:af:19:8e:d7:fc:e3:
                    cd:c6:58:f2:ca:7f:08:6d:53:fc:07:02:44:24:c6:
                    b4:34:4c:8c:04:fe:33:0e:40:e2:20:ba:02:73:5a:
                    f7:f5:4f:63:6e:cc:c6:b6:df:54:1d:37:39:7d:51:
                    36:26:5f:bd:dc:3f:a8:8b:6b:a2:ae:b6:9d:d6:21:
                    e7:df:41:b8:7a:28:2a:68:48:ca:a8:2d:ed:e1:e9:
                    46:5e:5a:72:6d:b4:84:38:87:91:fd:94:11:0b:28:
                    84:c6:c2:2f:2a:fb:01:f9:36:7a:09:75:d1:33:88:
                    3c:73:41:5b:c8:bf:94:89:70:a1:f0:c0:b9:2e:50:
                    53:1e:b1:17:64:69:f4:2d:81:e0:a9:0d:0e:32:e9:
                    ba:55:8a:85:f1:1b:6f:49:79:b4:7f:88:c3:0d:3e:
                    54:88:9b:3d:1f:38:8c:04:f3:ee:6a:63:2b:f5:c6:
                    db:b4:83:aa:c4:78:41:3a:7d:4b:e1:c8:3e:71:ca:
                    1b:61:59:ea:c6:c4:ca:32:5e:c9:e9:bf:12:29:e6:
                    c6:c3:63:fe:a0:55:da:7a:f1:60:98:4d:26:ed:fa:
                    70:2d
                Exponent: 65537 (0x10001)
        X509v3 extensions:
            X509v3 Key Usage: 
                Digital Signature, Key Encipherment
            X509v3 Basic Constraints: 
                CA:FALSE
            Netscape Cert Type: 
                SSL Server
            Netscape Comment: 
                OpenSSL Generated Server Certificate
            X509v3 Subject Key Identifier: 
                53:3F:ED:5D:09:07:B3:65:7B:AB:45:C9:24:5B:09:77:80:0A:96:ED
            X509v3 Authority Key Identifier: 
                keyid:F4:A7:C0:CC:91:46:AF:64:F3:91:F2:27:F8:C8:B2:6F:8A:87:32:73
                DirName:/C=DE/ST=Hessen/O=privacyidea/CN=CA001
                serial:FB:C8:EB:AC:83:CD:12:07

            X509v3 Extended Key Usage: 
                TLS Web Server Authentication
    Signature Algorithm: sha1WithRSAEncryption
         97:3b:b3:c1:4c:1d:ee:bc:37:a7:80:d4:9e:1d:b5:a6:2d:92:
         41:b9:44:ce:df:3e:0a:89:48:c3:f9:03:d6:90:c8:cc:32:e2:
         19:cc:e8:5b:1a:9e:d4:9a:2f:7a:72:9d:06:4e:81:f1:71:be:
         18:32:35:95:54:84:2e:77:02:7d:a1:fa:2f:57:29:73:91:2a:
         fc:ef:30:49:49:7c:50:4c:6f:9b:47:c4:11:72:62:f5:c6:9d:
         66:cd:f7:a5:70:a1:c7:ea:7e:3e:d4:87:ba:51:df:04:1d:8f:
         76:88:37:64:1e:d8:51:0e:de:9a:5d:5c:f1:3b:89:44:4d:66:
         53:1d:51:56:bc:f1:b1:81:aa:be:7c:6b:ab:52:e4:4f:d6:52:
         87:e2:02:ab:66:31:40:3e:e2:c1:84:47:6e:55:40:c6:8d:6a:
         fb:05:a0:5d:b4:9d:21:f8:2f:79:92:53:6b:78:12:0d:21:db:
         e1:ea:fc:64:d6:15:ef:15:f4:bf:9c:9a:38:4f:03:35:8f:03:
         5b:10:f4:51:c3:ff:d2:da:de:96:02:75:7b:9c:e1:29:8d:d7:
         c9:0f:6b:1c:80:5b:76:d9:e1:94:35:15:6d:20:d7:29:48:2e:
         a3:c6:66:b1:99:95:12:c5:ff:a7:c1:98:9c:f6:4f:05:8f:72:
         78:bf:84:65
-----BEGIN CERTIFICATE-----
MIIEJjCCAw6gAwIBAgIEEAAA2zANBgkqhkiG9w0BAQUFADBEMQswCQYDVQQGEwJE
RTEPMA0GA1UECAwGSGVzc2VuMRQwEgYDVQQKDAtwcml2YWN5aWRlYTEOMAwGA1UE
AwwFQ0EwMDEwHhcNMTYwNTI5MTEzMTE5WhcNMTcwNTI5MTEzMTE5WjBUMQswCQYD
VQQGEwJERTEPMA0GA1UECAwGSGVzc2VuMRQwEgYDVQQKDAtwcml2YWN5aWRlYTEe
MBwGA1UEAwwVcmVxdWVzdGVyLmxvY2FsZG9tYWluMIIBIjANBgkqhkiG9w0BAQEF
AAOCAQ8AMIIBCgKCAQEAzb4UT/rOAT9CIhsdnK/dktJ/22y3PjlDQ2sTA/EF9Ad0
vHZpKAuvGY7X/OPNxljyyn8IbVP8BwJEJMa0NEyMBP4zDkDiILoCc1r39U9jbszG
tt9UHTc5fVE2Jl+93D+oi2uirrad1iHn30G4eigqaEjKqC3t4elGXlpybbSEOIeR
/ZQRCyiExsIvKvsB+TZ6CXXRM4g8c0FbyL+UiXCh8MC5LlBTHrEXZGn0LYHgqQ0O
Mum6VYqF8RtvSXm0f4jDDT5UiJs9HziMBPPuamMr9cbbtIOqxHhBOn1L4cg+ccob
YVnqxsTKMl7J6b8SKebGw2P+oFXaevFgmE0m7fpwLQIDAQABo4IBDjCCAQowCwYD
VR0PBAQDAgWgMAkGA1UdEwQCMAAwEQYJYIZIAYb4QgEBBAQDAgZAMDMGCWCGSAGG
+EIBDQQmFiRPcGVuU1NMIEdlbmVyYXRlZCBTZXJ2ZXIgQ2VydGlmaWNhdGUwHQYD
VR0OBBYEFFM/7V0JB7Nle6tFySRbCXeACpbtMHQGA1UdIwRtMGuAFPSnwMyRRq9k
85HyJ/jIsm+KhzJzoUikRjBEMQswCQYDVQQGEwJERTEPMA0GA1UECAwGSGVzc2Vu
MRQwEgYDVQQKDAtwcml2YWN5aWRlYTEOMAwGA1UEAwwFQ0EwMDGCCQD7yOusg80S
BzATBgNVHSUEDDAKBggrBgEFBQcDATANBgkqhkiG9w0BAQUFAAOCAQEAlzuzwUwd
7rw3p4DUnh21pi2SQblEzt8+ColIw/kD1pDIzDLiGczoWxqe1JovenKdBk6B8XG+
GDI1lVSELncCfaH6L1cpc5Eq/O8wSUl8UExvm0fEEXJi9cadZs33pXChx+p+PtSH
ulHfBB2Pdog3ZB7YUQ7eml1c8TuJRE1mUx1RVrzxsYGqvnxrq1LkT9ZSh+ICq2Yx
QD7iwYRHblVAxo1q+wWgXbSdIfgveZJTa3gSDSHb4er8ZNYV7xX0v5yaOE8DNY8D
WxD0UcP/0trelgJ1e5zhKY3XyQ9rHIBbdtnhlDUVbSDXKUguo8ZmsZmVEsX/p8GY
nPZPBY9yeL+EZQ==
-----END CERTIFICATE-----
