Certificate:
    Data:
        Version: 3 (0x2)
        Serial Number: 268435665 (0x100000d1)
    Signature Algorithm: sha1WithRSAEncryption
        Issuer: C=DE, ST=Hessen, O=privacyidea, CN=CA001
        Validity
            Not Before: Aug 11 13:46:09 2016 GMT
            Not After : Aug 11 13:46:09 2017 GMT
        Subject: C=DE, ST=Hessen, O=privacyidea, CN=usercert
        Subject Public Key Info:
            Public Key Algorithm: rsaEncryption
                Public-Key: (2048 bit)
                Modulus:
                    00:dc:2f:d1:5f:29:97:d4:7c:c3:53:c8:30:bd:4b:
                    67:70:2c:24:6b:b8:5e:eb:21:7a:48:12:56:7c:81:
                    5c:48:75:b6:68:eb:f6:f2:98:4e:50:51:d1:7f:6c:
                    73:f3:0a:a7:ae:be:48:5e:e5:d6:e1:d9:2a:7c:32:
                    6e:4e:fd:08:f6:5a:54:49:23:73:c3:b9:07:18:d1:
                    ef:b3:ac:f8:8a:dc:94:96:a4:90:3a:8e:74:df:e6:
                    0d:37:1b:bd:5b:b7:25:1a:56:39:da:6f:91:aa:5e:
                    1c:74:f3:f9:7c:14:01:83:12:65:76:c7:bb:fe:36:
                    5b:95:e9:72:65:83:ed:3e:98:30:71:fa:87:dd:a3:
                    36:5a:30:03:2e:26:e0:61:d1:bf:02:3f:b6:06:1f:
                    4a:89:28:1c:5c:a2:ff:4e:be:94:e6:8c:e0:da:82:
                    f1:9d:29:32:48:30:73:b4:04:f6:42:1e:be:f7:e2:
                    32:32:27:3c:9d:89:2f:70:3e:85:9a:6f:5c:c5:09:
                    c0:8c:32:2f:72:22:c9:d2:95:1f:b6:ac:72:60:72:
                    b7:82:4d:6b:ce:5b:e3:00:d0:d2:2f:58:c6:e0:10:
                    e5:51:ca:4d:3b:2e:e6:7e:ab:84:d6:56:f1:93:35:
                    a0:93:64:26:81:75:2f:91:b5:16:06:38:0b:db:cc:
                    2d:07
                Exponent: 65537 (0x10001)
        X509v3 extensions:
            X509v3 Key Usage: 
                Digital Signature, Key Encipherment
            X509v3 Basic Constraints: 
                CA:FALSE
            Netscape Cert Type: 
                SSL Server
            Netscape Comment: 
                OpenSSL Generated Server Certificate
            X509v3 Subject Key Identifier: 
                FC:14:D1:F0:4B:8D:00:90:F2:F5:B8:71:9E:4E:97:C3:92:54:AD:0B
            X509v3 Authority Key Identifier: 
                keyid:F4:A7:C0:CC:91:46:AF:64:F3:91:F2:27:F8:C8:B2:6F:8A:87:32:73
                DirName:/C=DE/ST=Hessen/O=privacyidea/CN=CA001
                serial:FB:C8:EB:AC:83:CD:12:07

            X509v3 Extended Key Usage: 
                TLS Web Server Authentication
    Signature Algorithm: sha1WithRSAEncryption
         b6:a2:a9:4e:f5:c7:75:0f:7d:b8:a6:b2:70:b8:17:cd:a4:f5:
         d2:cb:2a:1f:a1:cf:ac:73:ae:ba:9b:d6:a5:0e:95:24:97:1c:
         80:ed:24:53:23:0b:c8:0c:ed:7a:96:56:82:50:46:d4:98:12:
         39:94:4f:a6:cf:9e:68:cb:76:c7:70:65:04:99:ac:f4:8e:fa:
         48:b2:06:41:f7:ba:77:dd:1e:02:56:08:1a:da:cb:77:33:f9:
         98:2b:58:b0:7a:ae:78:17:66:b3:5e:c8:ea:30:13:2f:1c:dc:
         74:a0:86:03:1e:05:4f:4c:d0:56:f7:db:b8:fe:f3:64:22:93:
         39:27:7d:a7:d7:41:7a:42:25:75:74:ab:6b:c2:5e:4c:81:07:
         24:3c:db:d8:69:ac:16:e4:14:cd:e4:ba:cb:f8:44:df:00:6c:
         19:d1:30:ba:22:f1:74:53:81:86:a8:0d:50:b8:41:64:99:f3:
         f0:a4:26:f0:77:00:68:84:3d:d4:24:a5:3b:f8:5e:74:c4:23:
         20:e7:24:ed:bf:f7:32:f1:10:0f:53:90:78:e3:58:76:57:cf:
         a2:cd:b2:ed:e1:af:50:ca:11:af:82:31:a9:6a:93:46:a3:d1:
         af:08:6a:6a:2e:b0:0e:fd:a6:1a:e5:3b:23:b0:58:a5:74:24:
         00:cc:70:aa
-----BEGIN CERTIFICATE-----
MIIEGTCCAwGgAwIBAgIEEAAA0TANBgkqhkiG9w0BAQUFADBEMQswCQYDVQQGEwJE
RTEPMA0GA1UECAwGSGVzc2VuMRQwEgYDVQQKDAtwcml2YWN5aWRlYTEOMAwGA1UE
AwwFQ0EwMDEwHhcNMTYwODExMTM0NjA5WhcNMTcwODExMTM0NjA5WjBHMQswCQYD
VQQGEwJERTEPMA0GA1UECAwGSGVzc2VuMRQwEgYDVQQKDAtwcml2YWN5aWRlYTER
MA8GA1UEAwwIdXNlcmNlcnQwggEiMA0GCSqGSIb3DQEBAQUAA4IBDwAwggEKAoIB
AQDcL9FfKZfUfMNTyDC9S2dwLCRruF7rIXpIElZ8gVxIdbZo6/bymE5QUdF/bHPz
Cqeuvkhe5dbh2Sp8Mm5O/Qj2WlRJI3PDuQcY0e+zrPiK3JSWpJA6jnTf5g03G71b
tyUaVjnab5GqXhx08/l8FAGDEmV2x7v+NluV6XJlg+0+mDBx+ofdozZaMAMuJuBh
0b8CP7YGH0qJKBxcov9OvpTmjODagvGdKTJIMHO0BPZCHr734jIyJzydiS9wPoWa
b1zFCcCMMi9yIsnSlR+2rHJgcreCTWvOW+MA0NIvWMbgEOVRyk07LuZ+q4TWVvGT
NaCTZCaBdS+RtRYGOAvbzC0HAgMBAAGjggEOMIIBCjALBgNVHQ8EBAMCBaAwCQYD
VR0TBAIwADARBglghkgBhvhCAQEEBAMCBkAwMwYJYIZIAYb4QgENBCYWJE9wZW5T
U0wgR2VuZXJhdGVkIFNlcnZlciBDZXJ0aWZpY2F0ZTAdBgNVHQ4EFgQU/BTR8EuN
AJDy9bhxnk6Xw5JUrQswdAYDVR0jBG0wa4AU9KfAzJFGr2TzkfIn+Miyb4qHMnOh
SKRGMEQxCzAJBgNVBAYTAkRFMQ8wDQYDVQQIDAZIZXNzZW4xFDASBgNVBAoMC3By
aXZhY3lpZGVhMQ4wDAYDVQQDDAVDQTAwMYIJAPvI66yDzRIHMBMGA1UdJQQMMAoG
CCsGAQUFBwMBMA0GCSqGSIb3DQEBBQUAA4IBAQC2oqlO9cd1D324prJwuBfNpPXS
yyofoc+sc666m9alDpUklxyA7SRTIwvIDO16llaCUEbUmBI5lE+mz55oy3bHcGUE
maz0jvpIsgZB97p33R4CVgga2st3M/mYK1iweq54F2azXsjqMBMvHNx0oIYDHgVP
TNBW99u4/vNkIpM5J32n10F6QiV1dKtrwl5MgQckPNvYaawW5BTN5LrL+ETfAGwZ
0TC6IvF0U4GGqA1QuEFkmfPwpCbwdwBohD3UJKU7+F50xCMg5yTtv/cy8RAPU5B4
41h2V8+izbLt4a9QyhGvgjGpapNGo9GvCGpqLrAO/aYa5TsjsFildCQAzHCq
-----END CERTIFICATE-----
