Certificate:
    Data:
        Version: 3 (0x2)
        Serial Number: 268435684 (0x100000e4)
    Signature Algorithm: sha1WithRSAEncryption
        Issuer: C=DE, ST=Hessen, O=privacyidea, CN=CA001
        Validity
            Not Before: Apr 26 09:14:37 2016 GMT
            Not After : Apr 26 09:14:37 2017 GMT
        Subject: C=DE, ST=Hessen, O=privacyidea, CN=requester.localdomain
        Subject Public Key Info:
            Public Key Algorithm: rsaEncryption
                Public-Key: (2048 bit)
                Modulus:
                    00:cd:be:14:4f:fa:ce:01:3f:42:22:1b:1d:9c:af:
                    dd:92:d2:7f:db:6c:b7:3e:39:43:43:6b:13:03:f1:
                    05:f4:07:74:bc:76:69:28:0b:af:19:8e:d7:fc:e3:
                    cd:c6:58:f2:ca:7f:08:6d:53:fc:07:02:44:24:c6:
                    b4:34:4c:8c:04:fe:33:0e:40:e2:20:ba:02:73:5a:
                    f7:f5:4f:63:6e:cc:c6:b6:df:54:1d:37:39:7d:51:
                    36:26:5f:bd:dc:3f:a8:8b:6b:a2:ae:b6:9d:d6:21:
                    e7:df:41:b8:7a:28:2a:68:48:ca:a8:2d:ed:e1:e9:
                    46:5e:5a:72:6d:b4:84:38:87:91:fd:94:11:0b:28:
                    84:c6:c2:2f:2a:fb:01:f9:36:7a:09:75:d1:33:88:
                    3c:73:41:5b:c8:bf:94:89:70:a1:f0:c0:b9:2e:50:
                    53:1e:b1:17:64:69:f4:2d:81:e0:a9:0d:0e:32:e9:
                    ba:55:8a:85:f1:1b:6f:49:79:b4:7f:88:c3:0d:3e:
                    54:88:9b:3d:1f:38:8c:04:f3:ee:6a:63:2b:f5:c6:
                    db:b4:83:aa:c4:78:41:3a:7d:4b:e1:c8:3e:71:ca:
                    1b:61:59:ea:c6:c4:ca:32:5e:c9:e9:bf:12:29:e6:
                    c6:c3:63:fe:a0:55:da:7a:f1:60:98:4d:26:ed:fa:
                    70:2d
                Exponent: 65537 (0x10001)
        X509v3 extensions:
            X509v3 Key Usage: 
                Digital Signature, Key Encipherment
            X509v3 Basic Constraints: 
                CA:FALSE
            Netscape Cert Type: 
                SSL Server
            Netscape Comment: 
                OpenSSL Generated Server Certificate
            X509v3 Subject Key Identifier: 
                53:3F:ED:5D:09:07:B3:65:7B:AB:45:C9:24:5B:09:77:80:0A:96:ED
            X509v3 Authority Key Identifier: 
                keyid:F4:A7:C0:CC:91:46:AF:64:F3:91:F2:27:F8:C8:B2:6F:8A:87:32:73
                DirName:/C=DE/ST=Hessen/O=privacyidea/CN=CA001
                serial:FB:C8:EB:AC:83:CD:12:07

            X509v3 Extended Key Usage: 
                TLS Web Server Authentication
    Signature Algorithm: sha1WithRSAEncryption
         99:34:80:f4:77:8b:45:7c:b1:a3:7e:57:dc:98:77:db:95:f3:
         ef:58:3a:7c:ef:77:0f:a4:d6:0a:f8:32:43:10:00:bc:82:51:
         93:6e:d8:4c:d0:66:4c:53:b0:cc:0b:6b:ff:4c:3c:b1:76:b8:
         58:98:35:8a:66:e5:b0:4a:80:84:7c:40:78:c5:0e:70:9c:2a:
         29:33:60:54:7b:57:9a:a3:ff:30:b3:8f:43:7a:d1:98:ad:73:
         27:20:0b:a5:20:1e:34:57:dc:75:b9:4d:0e:17:35:37:f8:a6:
         3b:1a:69:d9:50:c3:c6:33:f4:c3:51:ef:c4:7a:fc:ee:a8:a9:
         02:20:c1:93:ac:ce:d9:bb:79:7c:68:67:46:7f:b2:ad:a4:e7:
         7d:3a:11:3f:a5:aa:c6:57:f0:c3:04:da:02:01:20:38:d5:49:
         53:8e:36:cd:d0:0f:4e:9c:a4:4c:a9:6a:f2:59:cf:e9:9a:89:
         de:6a:ca:0b:7b:51:d9:c2:64:cf:2c:c9:c9:9a:1a:0c:10:d4:
         38:8b:04:c1:46:c2:f0:e0:b5:c9:2d:a0:fe:e4:a4:69:0f:16:
         8c:2a:bb:e5:be:e0:a7:b1:e9:06:a6:12:09:ff:71:00:7a:d4:
         81:90:a7:66:4d:d8:3f:c8:ea:c6:2f:1e:37:2e:9e:19:48:a9:
         a4:ba:4b:f2
-----BEGIN CERTIFICATE-----
MIIEJjCCAw6gAwIBAgIEEAAA5DANBgkqhkiG9w0BAQUFADBEMQswCQYDVQQGEwJE
RTEPMA0GA1UECAwGSGVzc2VuMRQwEgYDVQQKDAtwcml2YWN5aWRlYTEOMAwGA1UE
AwwFQ0EwMDEwHhcNMTYwNDI2MDkxNDM3WhcNMTcwNDI2MDkxNDM3WjBUMQswCQYD
VQQGEwJERTEPMA0GA1UECAwGSGVzc2VuMRQwEgYDVQQKDAtwcml2YWN5aWRlYTEe
MBwGA1UEAwwVcmVxdWVzdGVyLmxvY2FsZG9tYWluMIIBIjANBgkqhkiG9w0BAQEF
AAOCAQ8AMIIBCgKCAQEAzb4UT/rOAT9CIhsdnK/dktJ/22y3PjlDQ2sTA/EF9Ad0
vHZpKAuvGY7X/OPNxljyyn8IbVP8BwJEJMa0NEyMBP4zDkDiILoCc1r39U9jbszG
tt9UHTc5fVE2Jl+93D+oi2uirrad1iHn30G4eigqaEjKqC3t4elGXlpybbSEOIeR
/ZQRCyiExsIvKvsB+TZ6CXXRM4g8c0FbyL+UiXCh8MC5LlBTHrEXZGn0LYHgqQ0O
Mum6VYqF8RtvSXm0f4jDDT5UiJs9HziMBPPuamMr9cbbtIOqxHhBOn1L4cg+ccob
YVnqxsTKMl7J6b8SKebGw2P+oFXaevFgmE0m7fpwLQIDAQABo4IBDjCCAQowCwYD
VR0PBAQDAgWgMAkGA1UdEwQCMAAwEQYJYIZIAYb4QgEBBAQDAgZAMDMGCWCGSAGG
+EIBDQQmFiRPcGVuU1NMIEdlbmVyYXRlZCBTZXJ2ZXIgQ2VydGlmaWNhdGUwHQYD
VR0OBBYEFFM/7V0JB7Nle6tFySRbCXeACpbtMHQGA1UdIwRtMGuAFPSnwMyRRq9k
85HyJ/jIsm+KhzJzoUikRjBEMQswCQYDVQQGEwJERTEPMA0GA1UECAwGSGVzc2Vu
MRQwEgYDVQQKDAtwcml2YWN5aWRlYTEOMAwGA1UEAwwFQ0EwMDGCCQD7yOusg80S
BzATBgNVHSUEDDAKBggrBgEFBQcDATANBgkqhkiG9w0BAQUFAAOCAQEAmTSA9HeL
RXyxo35X3Jh325Xz71g6fO93D6TWCvgyQxAAvIJRk27YTNBmTFOwzAtr/0w8sXa4
WJg1imblsEqAhHxAeMUOcJwqKTNgVHtXmqP/MLOPQ3rRmK1zJyALpSAeNFfcdblN
Dhc1N/imOxpp2VDDxjP0w1HvxHr87qipAiDBk6zO2bt5fGhnRn+yraTnfToRP6Wq
xlfwwwTaAgEgONVJU442zdAPTpykTKlq8lnP6ZqJ3mrKC3tR2cJkzyzJyZoaDBDU
OIsEwUbC8OC1yS2g/uSkaQ8WjCq75b7gp7HpBqYSCf9xAHrUgZCnZk3YP8jqxi8e
Ny6eGUippLpL8g==
-----END CERTIFICATE-----
