Certificate:
    Data:
        Version: 3 (0x2)
        Serial Number: 268435660 (0x100000cc)
    Signature Algorithm: sha1WithRSAEncryption
        Issuer: C=DE, ST=Hessen, O=privacyidea, CN=CA001
        Validity
            Not Before: Aug 15 12:24:23 2016 GMT
            Not After : Aug 15 12:24:23 2017 GMT
        Subject: CN=Steve Test/emailAddress=steve@openssl.org
        Subject Public Key Info:
            Public Key Algorithm: rsaEncryption
                Public-Key: (2048 bit)
                Modulus:
                    00:d2:81:89:20:51:48:0f:73:f4:11:32:24:d5:1f:
                    1c:fd:5c:f5:b6:e6:c5:f0:52:81:dc:d2:af:66:4a:
                    7c:93:31:61:5c:af:d1:6d:06:70:03:60:7c:72:0c:
                    88:dd:49:cd:9e:02:6c:d2:5a:d7:53:0f:f3:da:be:
                    69:64:b5:0f:0c:00:e3:b3:50:47:a3:b3:9b:ba:13:
                    50:d6:58:5a:4b:ab:39:e0:11:ca:0a:27:67:03:78:
                    22:66:6d:92:1e:1b:5c:49:ae:e6:6b:d1:8e:3b:9d:
                    06:d3:c6:ac:4d:53:43:10:ab:e8:96:c1:87:82:97:
                    99:8f:20:d3:99:12:37:31:84:e1:8a:ff:29:03:5f:
                    22:90:3e:7f:9b:e0:20:c1:ad:dc:ae:4c:39:1a:31:
                    96:17:02:8c:b2:d9:b4:0d:20:12:9b:7d:86:54:fd:
                    33:fd:c1:2a:62:46:f8:60:96:cf:6e:01:6f:22:df:
                    13:47:e7:97:ec:05:72:23:a3:62:f8:fa:ef:ac:9c:
                    72:f0:37:cb:2f:37:cf:90:a8:27:51:86:c6:d7:78:
                    08:8f:7e:25:a2:15:70:a2:fb:1c:b6:15:5e:a0:97:
                    8b:81:4c:09:28:8a:27:3b:94:bc:71:db:5b:71:37:
                    9a:2b:16:e0:6f:b5:c9:f5:4b:4f:20:ba:65:cf:af:
                    ad:ad
                Exponent: 65537 (0x10001)
        X509v3 extensions:
            X509v3 Key Usage: 
                Digital Signature, Key Encipherment
            X509v3 Basic Constraints: 
                CA:FALSE
            Netscape Cert Type: 
                SSL Server
            Netscape Comment: 
                OpenSSL Generated Server Certificate
            X509v3 Subject Key Identifier: 
                E5:25:6D:3E:AF:0D:DD:3F:4C:F2:45:19:39:D5:14:DB:7E:9C:C0:AD
            X509v3 Authority Key Identifier: 
                keyid:F4:A7:C0:CC:91:46:AF:64:F3:91:F2:27:F8:C8:B2:6F:8A:87:32:73
                DirName:/C=DE/ST=Hessen/O=privacyidea/CN=CA001
                serial:FB:C8:EB:AC:83:CD:12:07

            X509v3 Extended Key Usage: 
                TLS Web Server Authentication
    Signature Algorithm: sha1WithRSAEncryption
         64:bc:7f:4d:e5:aa:70:1e:8d:f6:4b:d4:94:1d:57:62:75:cc:
         d4:d3:d1:f2:99:b3:c3:15:72:86:61:4e:4b:ff:bb:80:05:93:
         6d:6d:ff:5c:5a:3a:89:8a:49:9a:63:7b:a0:8c:56:a7:9b:d8:
         78:eb:41:8e:9b:79:4e:01:70:2e:f3:b7:f0:7a:2a:25:70:47:
         26:b5:9f:0e:c6:fc:7d:32:d6:37:45:aa:36:0a:20:8b:a9:11:
         62:f4:fc:a1:8b:96:ea:64:83:bd:21:72:7a:96:f2:c7:bf:fb:
         be:1f:db:0b:f5:28:fc:4a:d2:ba:47:2c:d5:0c:6c:f4:b5:fd:
         9c:f6:3d:5e:fc:68:79:f6:eb:80:3a:eb:d7:17:97:4c:f9:1d:
         a4:b8:2b:72:81:0c:e3:c9:8c:ae:33:10:09:76:94:c9:35:52:
         db:69:4d:69:25:e9:ac:5c:1c:29:2c:a6:05:7e:3f:2e:cb:5a:
         eb:42:f8:ba:f1:49:4d:69:c7:6d:6c:ce:43:4f:b5:ba:e3:28:
         76:40:5e:5c:d8:52:90:9b:22:6d:2b:99:9b:7f:c3:fe:2e:d0:
         d9:31:a9:86:70:c2:01:45:c4:b3:18:fd:25:bb:c6:6e:26:f0:
         b7:2d:bf:19:1a:be:3c:96:c1:b1:29:21:84:42:4a:a0:8f:ec:
         82:3c:12:3d
-----BEGIN CERTIFICATE-----
MIIECTCCAvGgAwIBAgIEEAAAzDANBgkqhkiG9w0BAQUFADBEMQswCQYDVQQGEwJE
RTEPMA0GA1UECAwGSGVzc2VuMRQwEgYDVQQKDAtwcml2YWN5aWRlYTEOMAwGA1UE
AwwFQ0EwMDEwHhcNMTYwODE1MTIyNDIzWhcNMTcwODE1MTIyNDIzWjA3MRMwEQYD
VQQDEwpTdGV2ZSBUZXN0MSAwHgYJKoZIhvcNAQkBFhFzdGV2ZUBvcGVuc3NsLm9y
ZzCCASIwDQYJKoZIhvcNAQEBBQADggEPADCCAQoCggEBANKBiSBRSA9z9BEyJNUf
HP1c9bbmxfBSgdzSr2ZKfJMxYVyv0W0GcANgfHIMiN1JzZ4CbNJa11MP89q+aWS1
DwwA47NQR6Ozm7oTUNZYWkurOeARygonZwN4ImZtkh4bXEmu5mvRjjudBtPGrE1T
QxCr6JbBh4KXmY8g05kSNzGE4Yr/KQNfIpA+f5vgIMGt3K5MORoxlhcCjLLZtA0g
Ept9hlT9M/3BKmJG+GCWz24BbyLfE0fnl+wFciOjYvj676yccvA3yy83z5CoJ1GG
xtd4CI9+JaIVcKL7HLYVXqCXi4FMCSiKJzuUvHHbW3E3misW4G+1yfVLTyC6Zc+v
ra0CAwEAAaOCAQ4wggEKMAsGA1UdDwQEAwIFoDAJBgNVHRMEAjAAMBEGCWCGSAGG
+EIBAQQEAwIGQDAzBglghkgBhvhCAQ0EJhYkT3BlblNTTCBHZW5lcmF0ZWQgU2Vy
dmVyIENlcnRpZmljYXRlMB0GA1UdDgQWBBTlJW0+rw3dP0zyRRk51RTbfpzArTB0
BgNVHSMEbTBrgBT0p8DMkUavZPOR8if4yLJviocyc6FIpEYwRDELMAkGA1UEBhMC
REUxDzANBgNVBAgMBkhlc3NlbjEUMBIGA1UECgwLcHJpdmFjeWlkZWExDjAMBgNV
BAMMBUNBMDAxggkA+8jrrIPNEgcwEwYDVR0lBAwwCgYIKwYBBQUHAwEwDQYJKoZI
hvcNAQEFBQADggEBAGS8f03lqnAejfZL1JQdV2J1zNTT0fKZs8MVcoZhTkv/u4AF
k21t/1xaOomKSZpje6CMVqeb2HjrQY6beU4BcC7zt/B6KiVwRya1nw7G/H0y1jdF
qjYKIIupEWL0/KGLlupkg70hcnqW8se/+74f2wv1KPxK0rpHLNUMbPS1/Zz2PV78
aHn264A669cXl0z5HaS4K3KBDOPJjK4zEAl2lMk1UttpTWkl6axcHCkspgV+Py7L
WutC+LrxSU1px21szkNPtbrjKHZAXlzYUpCbIm0rmZt/w/4u0NkxqYZwwgFFxLMY
/SW7xm4m8LctvxkavjyWwbEpIYRCSqCP7II8Ej0=
-----END CERTIFICATE-----
