Certificate:
    Data:
        Version: 3 (0x2)
        Serial Number: 268435664 (0x100000d0)
    Signature Algorithm: sha1WithRSAEncryption
        Issuer: C=DE, ST=Hessen, O=privacyidea, CN=CA001
        Validity
            Not Before: Aug 11 13:46:08 2016 GMT
            Not After : Aug 11 13:46:08 2017 GMT
        Subject: C=DE, ST=Hessen, O=privacyidea, CN=requester.localdomain
        Subject Public Key Info:
            Public Key Algorithm: rsaEncryption
                Public-Key: (2048 bit)
                Modulus:
                    00:cd:be:14:4f:fa:ce:01:3f:42:22:1b:1d:9c:af:
                    dd:92:d2:7f:db:6c:b7:3e:39:43:43:6b:13:03:f1:
                    05:f4:07:74:bc:76:69:28:0b:af:19:8e:d7:fc:e3:
                    cd:c6:58:f2:ca:7f:08:6d:53:fc:07:02:44:24:c6:
                    b4:34:4c:8c:04:fe:33:0e:40:e2:20:ba:02:73:5a:
                    f7:f5:4f:63:6e:cc:c6:b6:df:54:1d:37:39:7d:51:
                    36:26:5f:bd:dc:3f:a8:8b:6b:a2:ae:b6:9d:d6:21:
                    e7:df:41:b8:7a:28:2a:68:48:ca:a8:2d:ed:e1:e9:
                    46:5e:5a:72:6d:b4:84:38:87:91:fd:94:11:0b:28:
                    84:c6:c2:2f:2a:fb:01:f9:36:7a:09:75:d1:33:88:
                    3c:73:41:5b:c8:bf:94:89:70:a1:f0:c0:b9:2e:50:
                    53:1e:b1:17:64:69:f4:2d:81:e0:a9:0d:0e:32:e9:
                    ba:55:8a:85:f1:1b:6f:49:79:b4:7f:88:c3:0d:3e:
                    54:88:9b:3d:1f:38:8c:04:f3:ee:6a:63:2b:f5:c6:
                    db:b4:83:aa:c4:78:41:3a:7d:4b:e1:c8:3e:71:ca:
                    1b:61:59:ea:c6:c4:ca:32:5e:c9:e9:bf:12:29:e6:
                    c6:c3:63:fe:a0:55:da:7a:f1:60:98:4d:26:ed:fa:
                    70:2d
                Exponent: 65537 (0x10001)
        X509v3 extensions:
            X509v3 Key Usage: 
                Digital Signature, Key Encipherment
            X509v3 Basic Constraints: 
                CA:FALSE
            Netscape Cert Type: 
                SSL Server
            Netscape Comment: 
                OpenSSL Generated Server Certificate
            X509v3 Subject Key Identifier: 
                53:3F:ED:5D:09:07:B3:65:7B:AB:45:C9:24:5B:09:77:80:0A:96:ED
            X509v3 Authority Key Identifier: 
                keyid:F4:A7:C0:CC:91:46:AF:64:F3:91:F2:27:F8:C8:B2:6F:8A:87:32:73
                DirName:/C=DE/ST=Hessen/O=privacyidea/CN=CA001
                serial:FB:C8:EB:AC:83:CD:12:07

            X509v3 Extended Key Usage: 
                TLS Web Server Authentication
    Signature Algorithm: sha1WithRSAEncryption
         90:8d:aa:c0:66:67:65:97:09:5b:95:44:7a:13:5f:9f:f3:7b:
         53:a0:97:62:80:25:e8:ee:ca:c5:19:ef:65:5f:a5:7b:a5:c3:
         0f:78:94:1c:0c:5f:54:4b:88:08:09:eb:e4:72:8c:44:81:64:
         ca:0e:9c:9f:b9:32:f1:b7:af:63:e0:10:9f:60:b4:d7:d1:02:
         81:b0:4a:3a:41:84:c9:29:2f:60:1e:9a:c0:ea:11:a5:f9:3c:
         a4:f7:b2:e2:9e:92:ee:9b:46:2b:02:32:38:b1:38:19:04:80:
         47:a4:48:aa:d4:16:4d:e3:f4:69:ab:3d:85:21:63:fe:4b:b5:
         e6:82:80:27:6b:0f:8e:ae:9c:91:94:e4:6a:4f:3c:38:d3:ce:
         94:7f:fc:3c:7d:47:7b:44:02:c7:98:4b:b3:72:1b:83:6e:8e:
         3a:40:de:8a:1d:68:52:3f:41:a4:f3:47:b8:81:e8:2c:3b:b9:
         dd:15:ca:f4:73:b5:3a:44:1f:a5:b0:20:eb:1b:0c:70:6d:e6:
         28:01:e1:2e:0c:fb:1c:42:5b:89:18:9d:41:d2:93:ed:cd:d5:
         c2:05:53:2f:aa:12:eb:84:38:13:77:25:6c:31:e7:17:bc:48:
         80:79:01:cf:1b:3d:f5:57:ed:8e:26:57:02:f1:69:d2:f9:8b:
         cb:fe:48:8c
-----BEGIN CERTIFICATE-----
MIIEJjCCAw6gAwIBAgIEEAAA0DANBgkqhkiG9w0BAQUFADBEMQswCQYDVQQGEwJE
RTEPMA0GA1UECAwGSGVzc2VuMRQwEgYDVQQKDAtwcml2YWN5aWRlYTEOMAwGA1UE
AwwFQ0EwMDEwHhcNMTYwODExMTM0NjA4WhcNMTcwODExMTM0NjA4WjBUMQswCQYD
VQQGEwJERTEPMA0GA1UECAwGSGVzc2VuMRQwEgYDVQQKDAtwcml2YWN5aWRlYTEe
MBwGA1UEAwwVcmVxdWVzdGVyLmxvY2FsZG9tYWluMIIBIjANBgkqhkiG9w0BAQEF
AAOCAQ8AMIIBCgKCAQEAzb4UT/rOAT9CIhsdnK/dktJ/22y3PjlDQ2sTA/EF9Ad0
vHZpKAuvGY7X/OPNxljyyn8IbVP8BwJEJMa0NEyMBP4zDkDiILoCc1r39U9jbszG
tt9UHTc5fVE2Jl+93D+oi2uirrad1iHn30G4eigqaEjKqC3t4elGXlpybbSEOIeR
/ZQRCyiExsIvKvsB+TZ6CXXRM4g8c0FbyL+UiXCh8MC5LlBTHrEXZGn0LYHgqQ0O
Mum6VYqF8RtvSXm0f4jDDT5UiJs9HziMBPPuamMr9cbbtIOqxHhBOn1L4cg+ccob
YVnqxsTKMl7J6b8SKebGw2P+oFXaevFgmE0m7fpwLQIDAQABo4IBDjCCAQowCwYD
VR0PBAQDAgWgMAkGA1UdEwQCMAAwEQYJYIZIAYb4QgEBBAQDAgZAMDMGCWCGSAGG
+EIBDQQmFiRPcGVuU1NMIEdlbmVyYXRlZCBTZXJ2ZXIgQ2VydGlmaWNhdGUwHQYD
VR0OBBYEFFM/7V0JB7Nle6tFySRbCXeACpbtMHQGA1UdIwRtMGuAFPSnwMyRRq9k
85HyJ/jIsm+KhzJzoUikRjBEMQswCQYDVQQGEwJERTEPMA0GA1UECAwGSGVzc2Vu
MRQwEgYDVQQKDAtwcml2YWN5aWRlYTEOMAwGA1UEAwwFQ0EwMDGCCQD7yOusg80S
BzATBgNVHSUEDDAKBggrBgEFBQcDATANBgkqhkiG9w0BAQUFAAOCAQEAkI2qwGZn
ZZcJW5VEehNfn/N7U6CXYoAl6O7KxRnvZV+le6XDD3iUHAxfVEuICAnr5HKMRIFk
yg6cn7ky8bevY+AQn2C019ECgbBKOkGEySkvYB6awOoRpfk8pPey4p6S7ptGKwIy
OLE4GQSAR6RIqtQWTeP0aas9hSFj/ku15oKAJ2sPjq6ckZTkak88ONPOlH/8PH1H
e0QCx5hLs3Ibg26OOkDeih1oUj9BpPNHuIHoLDu53RXK9HO1OkQfpbAg6xsMcG3m
KAHhLgz7HEJbiRidQdKT7c3VwgVTL6oS64Q4E3clbDHnF7xIgHkBzxs99VftjiZX
AvFp0vmLy/5IjA==
-----END CERTIFICATE-----
