Certificate:
    Data:
        Version: 3 (0x2)
        Serial Number: 268435686 (0x100000e6)
    Signature Algorithm: sha1WithRSAEncryption
        Issuer: C=DE, ST=Hessen, O=privacyidea, CN=CA001
        Validity
            Not Before: Apr 26 09:15:00 2016 GMT
            Not After : Apr 26 09:15:00 2017 GMT
        Subject: C=DE, ST=Hessen, O=privacyidea, CN=requester.localdomain
        Subject Public Key Info:
            Public Key Algorithm: rsaEncryption
                Public-Key: (2048 bit)
                Modulus:
                    00:cd:be:14:4f:fa:ce:01:3f:42:22:1b:1d:9c:af:
                    dd:92:d2:7f:db:6c:b7:3e:39:43:43:6b:13:03:f1:
                    05:f4:07:74:bc:76:69:28:0b:af:19:8e:d7:fc:e3:
                    cd:c6:58:f2:ca:7f:08:6d:53:fc:07:02:44:24:c6:
                    b4:34:4c:8c:04:fe:33:0e:40:e2:20:ba:02:73:5a:
                    f7:f5:4f:63:6e:cc:c6:b6:df:54:1d:37:39:7d:51:
                    36:26:5f:bd:dc:3f:a8:8b:6b:a2:ae:b6:9d:d6:21:
                    e7:df:41:b8:7a:28:2a:68:48:ca:a8:2d:ed:e1:e9:
                    46:5e:5a:72:6d:b4:84:38:87:91:fd:94:11:0b:28:
                    84:c6:c2:2f:2a:fb:01:f9:36:7a:09:75:d1:33:88:
                    3c:73:41:5b:c8:bf:94:89:70:a1:f0:c0:b9:2e:50:
                    53:1e:b1:17:64:69:f4:2d:81:e0:a9:0d:0e:32:e9:
                    ba:55:8a:85:f1:1b:6f:49:79:b4:7f:88:c3:0d:3e:
                    54:88:9b:3d:1f:38:8c:04:f3:ee:6a:63:2b:f5:c6:
                    db:b4:83:aa:c4:78:41:3a:7d:4b:e1:c8:3e:71:ca:
                    1b:61:59:ea:c6:c4:ca:32:5e:c9:e9:bf:12:29:e6:
                    c6:c3:63:fe:a0:55:da:7a:f1:60:98:4d:26:ed:fa:
                    70:2d
                Exponent: 65537 (0x10001)
        X509v3 extensions:
            X509v3 Key Usage: 
                Digital Signature, Key Encipherment
            X509v3 Basic Constraints: 
                CA:FALSE
            Netscape Cert Type: 
                SSL Server
            Netscape Comment: 
                OpenSSL Generated Server Certificate
            X509v3 Subject Key Identifier: 
                53:3F:ED:5D:09:07:B3:65:7B:AB:45:C9:24:5B:09:77:80:0A:96:ED
            X509v3 Authority Key Identifier: 
                keyid:F4:A7:C0:CC:91:46:AF:64:F3:91:F2:27:F8:C8:B2:6F:8A:87:32:73
                DirName:/C=DE/ST=Hessen/O=privacyidea/CN=CA001
                serial:FB:C8:EB:AC:83:CD:12:07

            X509v3 Extended Key Usage: 
                TLS Web Server Authentication
    Signature Algorithm: sha1WithRSAEncryption
         56:03:96:02:ab:2e:12:a4:df:31:43:c5:4d:2a:45:20:ea:6d:
         e7:a7:8c:51:71:bf:01:c5:cb:50:7e:8c:00:a1:7f:dc:63:0b:
         47:5f:54:0a:c3:09:f5:21:a6:ed:5b:0a:bc:2b:58:a1:dd:a2:
         18:58:78:8a:ac:d1:56:a7:2d:e4:51:84:0f:94:d9:17:c1:11:
         9b:dd:03:4f:cb:84:56:16:fb:37:4d:60:2a:f3:23:5b:9a:8a:
         51:a4:59:a5:69:f5:08:db:b2:c1:02:6d:21:d2:08:0b:a1:52:
         e5:64:b2:1e:ed:c0:0f:9a:5a:4d:b6:01:9a:4a:0b:47:5a:72:
         b1:9a:0f:ea:9b:27:dc:59:1f:ad:73:2e:5f:fe:2d:b2:a0:1f:
         4c:8f:b6:bf:92:73:a3:61:c6:8c:d6:a8:f5:2f:bc:5d:7e:d0:
         ef:59:dc:5f:53:1f:ec:11:a4:b5:7b:8d:b3:87:dc:b3:35:eb:
         7d:0f:f4:9f:c5:d8:08:ee:c0:0c:b6:47:1d:92:7b:7b:a7:87:
         4a:fa:59:53:03:e5:23:cb:a5:15:72:79:d9:54:67:9d:6a:a6:
         cd:1f:85:f6:7d:c8:a3:1d:ff:ef:6d:17:e2:07:a2:7b:e7:f8:
         02:8a:a2:87:af:da:4b:05:66:11:dc:70:5a:15:38:4e:49:8f:
         cb:54:ce:60
-----BEGIN CERTIFICATE-----
MIIEJjCCAw6gAwIBAgIEEAAA5jANBgkqhkiG9w0BAQUFADBEMQswCQYDVQQGEwJE
RTEPMA0GA1UECAwGSGVzc2VuMRQwEgYDVQQKDAtwcml2YWN5aWRlYTEOMAwGA1UE
AwwFQ0EwMDEwHhcNMTYwNDI2MDkxNTAwWhcNMTcwNDI2MDkxNTAwWjBUMQswCQYD
VQQGEwJERTEPMA0GA1UECAwGSGVzc2VuMRQwEgYDVQQKDAtwcml2YWN5aWRlYTEe
MBwGA1UEAwwVcmVxdWVzdGVyLmxvY2FsZG9tYWluMIIBIjANBgkqhkiG9w0BAQEF
AAOCAQ8AMIIBCgKCAQEAzb4UT/rOAT9CIhsdnK/dktJ/22y3PjlDQ2sTA/EF9Ad0
vHZpKAuvGY7X/OPNxljyyn8IbVP8BwJEJMa0NEyMBP4zDkDiILoCc1r39U9jbszG
tt9UHTc5fVE2Jl+93D+oi2uirrad1iHn30G4eigqaEjKqC3t4elGXlpybbSEOIeR
/ZQRCyiExsIvKvsB+TZ6CXXRM4g8c0FbyL+UiXCh8MC5LlBTHrEXZGn0LYHgqQ0O
Mum6VYqF8RtvSXm0f4jDDT5UiJs9HziMBPPuamMr9cbbtIOqxHhBOn1L4cg+ccob
YVnqxsTKMl7J6b8SKebGw2P+oFXaevFgmE0m7fpwLQIDAQABo4IBDjCCAQowCwYD
VR0PBAQDAgWgMAkGA1UdEwQCMAAwEQYJYIZIAYb4QgEBBAQDAgZAMDMGCWCGSAGG
+EIBDQQmFiRPcGVuU1NMIEdlbmVyYXRlZCBTZXJ2ZXIgQ2VydGlmaWNhdGUwHQYD
VR0OBBYEFFM/7V0JB7Nle6tFySRbCXeACpbtMHQGA1UdIwRtMGuAFPSnwMyRRq9k
85HyJ/jIsm+KhzJzoUikRjBEMQswCQYDVQQGEwJERTEPMA0GA1UECAwGSGVzc2Vu
MRQwEgYDVQQKDAtwcml2YWN5aWRlYTEOMAwGA1UEAwwFQ0EwMDGCCQD7yOusg80S
BzATBgNVHSUEDDAKBggrBgEFBQcDATANBgkqhkiG9w0BAQUFAAOCAQEAVgOWAqsu
EqTfMUPFTSpFIOpt56eMUXG/AcXLUH6MAKF/3GMLR19UCsMJ9SGm7VsKvCtYod2i
GFh4iqzRVqct5FGED5TZF8ERm90DT8uEVhb7N01gKvMjW5qKUaRZpWn1CNuywQJt
IdIIC6FS5WSyHu3AD5paTbYBmkoLR1pysZoP6psn3FkfrXMuX/4tsqAfTI+2v5Jz
o2HGjNao9S+8XX7Q71ncX1Mf7BGktXuNs4fcszXrfQ/0n8XYCO7ADLZHHZJ7e6eH
SvpZUwPlI8ulFXJ52VRnnWqmzR+F9n3Iox3/720X4geie+f4Aoqih6/aSwVmEdxw
WhU4TkmPy1TOYA==
-----END CERTIFICATE-----
