Certificate:
    Data:
        Version: 3 (0x2)
        Serial Number: 268435699 (0x100000f3)
    Signature Algorithm: sha1WithRSAEncryption
        Issuer: C=DE, ST=Hessen, O=privacyidea, CN=CA001
        Validity
            Not Before: Apr 26 12:49:10 2016 GMT
            Not After : Apr 26 12:49:10 2017 GMT
        Subject: OU=realm1, CN=cornelius/emailAddress=user@localhost.localdomain
        Subject Public Key Info:
            Public Key Algorithm: rsaEncryption
                Public-Key: (2048 bit)
                Modulus:
                    00:9f:8c:2f:44:76:ee:e2:7e:a4:0d:10:ed:5c:13:
                    b7:f8:fb:72:23:96:4c:78:2b:5b:ea:7c:70:5a:2a:
                    96:d1:42:da:56:46:a5:85:6f:3c:6d:1f:6d:d1:6d:
                    ef:c2:e3:59:f8:05:53:3f:d0:b1:04:78:58:b0:6b:
                    81:f5:bf:bc:80:7b:f7:6d:f0:e8:4a:87:2e:6e:2c:
                    1e:d4:02:c6:09:3b:21:e2:af:22:d0:06:e4:b6:f7:
                    5b:95:c2:6c:57:78:f9:6c:bc:44:d9:43:17:5d:57:
                    35:28:73:e3:34:78:b0:38:7b:49:df:e0:25:57:f0:
                    7e:ad:9f:cb:d9:31:8f:a1:5b:82:f1:6b:24:50:79:
                    23:53:5e:bd:00:4c:e4:1c:dd:c2:71:ef:c4:cf:6c:
                    a7:bf:20:96:90:76:d6:72:9c:5e:71:ce:6d:e6:c0:
                    3c:8c:c4:79:3f:84:93:78:4c:ea:7c:00:fd:70:8c:
                    c0:f8:2b:b9:20:68:fd:b8:de:3e:73:85:94:a3:38:
                    86:9b:4a:30:30:38:d1:57:59:bc:db:aa:b5:41:c4:
                    95:93:a9:09:97:de:4d:24:ac:c8:8e:2f:cd:51:2b:
                    5d:3f:0a:d8:af:49:93:af:63:59:9f:c6:1e:f7:2c:
                    f0:fb:34:0f:f8:b3:c0:0d:f2:80:81:c4:9c:76:eb:
                    5d:b7
                Exponent: 65537 (0x10001)
        X509v3 extensions:
            X509v3 Key Usage: 
                Digital Signature, Key Encipherment
            X509v3 Basic Constraints: 
                CA:FALSE
            Netscape Cert Type: 
                SSL Server
            Netscape Comment: 
                OpenSSL Generated Server Certificate
            X509v3 Subject Key Identifier: 
                5F:93:25:17:5B:31:C7:D9:43:DE:09:DF:49:8D:C2:24:CB:BC:FA:E8
            X509v3 Authority Key Identifier: 
                keyid:F4:A7:C0:CC:91:46:AF:64:F3:91:F2:27:F8:C8:B2:6F:8A:87:32:73
                DirName:/C=DE/ST=Hessen/O=privacyidea/CN=CA001
                serial:FB:C8:EB:AC:83:CD:12:07

            X509v3 Extended Key Usage: 
                TLS Web Server Authentication
    Signature Algorithm: sha1WithRSAEncryption
         9d:1b:c7:25:fa:0e:62:ca:81:56:e4:51:3f:e4:93:09:6b:a8:
         c8:de:93:a2:58:37:74:d9:4d:8e:fd:c2:c4:a6:3c:80:1f:3f:
         c1:ec:aa:ad:26:ab:53:6f:fc:94:dd:7d:6d:5c:a3:4f:49:e9:
         a8:d6:10:b4:10:4e:1e:0e:ce:aa:b9:b2:1c:40:33:bd:90:bc:
         30:ef:d3:93:21:ff:5d:a4:42:dc:d1:f0:4a:2e:52:38:52:38:
         94:ca:1c:c7:ec:c8:9d:92:d6:1a:ae:2c:7f:7e:4a:8e:68:34:
         a2:9b:de:9b:a5:86:d3:60:94:d2:70:e4:83:04:93:69:47:55:
         da:14:fe:49:24:2b:8f:c3:5b:26:fd:5d:b0:35:ca:11:c0:ab:
         f1:4b:e9:e7:75:9b:d9:20:ed:95:99:83:cf:67:d8:23:05:7b:
         ee:22:03:41:43:dc:8b:1c:e3:09:37:13:d2:d9:19:1c:2b:62:
         49:4a:24:bf:54:a5:1b:21:af:a9:60:3a:cb:45:74:52:4d:67:
         bd:da:05:79:36:ee:08:ae:fc:4c:74:37:e9:12:90:79:09:6e:
         86:2e:ec:36:53:40:29:f7:c8:41:d0:f0:a1:e8:5b:f0:8e:d7:
         8e:9b:96:44:ba:9a:95:36:83:e5:9e:8c:d3:a7:93:ed:d7:c7:
         36:88:e3:09
-----BEGIN CERTIFICATE-----
MIIEIjCCAwqgAwIBAgIEEAAA8zANBgkqhkiG9w0BAQUFADBEMQswCQYDVQQGEwJE
RTEPMA0GA1UECAwGSGVzc2VuMRQwEgYDVQQKDAtwcml2YWN5aWRlYTEOMAwGA1UE
AwwFQ0EwMDEwHhcNMTYwNDI2MTI0OTEwWhcNMTcwNDI2MTI0OTEwWjBQMQ8wDQYD
VQQLEwZyZWFsbTExEjAQBgNVBAMTCWNvcm5lbGl1czEpMCcGCSqGSIb3DQEJARYa
dXNlckBsb2NhbGhvc3QubG9jYWxkb21haW4wggEiMA0GCSqGSIb3DQEBAQUAA4IB
DwAwggEKAoIBAQCfjC9Edu7ifqQNEO1cE7f4+3Ijlkx4K1vqfHBaKpbRQtpWRqWF
bzxtH23Rbe/C41n4BVM/0LEEeFiwa4H1v7yAe/dt8OhKhy5uLB7UAsYJOyHiryLQ
BuS291uVwmxXePlsvETZQxddVzUoc+M0eLA4e0nf4CVX8H6tn8vZMY+hW4LxayRQ
eSNTXr0ATOQc3cJx78TPbKe/IJaQdtZynF5xzm3mwDyMxHk/hJN4TOp8AP1wjMD4
K7kgaP243j5zhZSjOIabSjAwONFXWbzbqrVBxJWTqQmX3k0krMiOL81RK10/Ctiv
SZOvY1mfxh73LPD7NA/4s8AN8oCBxJx26123AgMBAAGjggEOMIIBCjALBgNVHQ8E
BAMCBaAwCQYDVR0TBAIwADARBglghkgBhvhCAQEEBAMCBkAwMwYJYIZIAYb4QgEN
BCYWJE9wZW5TU0wgR2VuZXJhdGVkIFNlcnZlciBDZXJ0aWZpY2F0ZTAdBgNVHQ4E
FgQUX5MlF1sxx9lD3gnfSY3CJMu8+ugwdAYDVR0jBG0wa4AU9KfAzJFGr2TzkfIn
+Miyb4qHMnOhSKRGMEQxCzAJBgNVBAYTAkRFMQ8wDQYDVQQIDAZIZXNzZW4xFDAS
BgNVBAoMC3ByaXZhY3lpZGVhMQ4wDAYDVQQDDAVDQTAwMYIJAPvI66yDzRIHMBMG
A1UdJQQMMAoGCCsGAQUFBwMBMA0GCSqGSIb3DQEBBQUAA4IBAQCdG8cl+g5iyoFW
5FE/5JMJa6jI3pOiWDd02U2O/cLEpjyAHz/B7KqtJqtTb/yU3X1tXKNPSemo1hC0
EE4eDs6qubIcQDO9kLww79OTIf9dpELc0fBKLlI4UjiUyhzH7MidktYarix/fkqO
aDSim96bpYbTYJTScOSDBJNpR1XaFP5JJCuPw1sm/V2wNcoRwKvxS+nndZvZIO2V
mYPPZ9gjBXvuIgNBQ9yLHOMJNxPS2RkcK2JJSiS/VKUbIa+pYDrLRXRSTWe92gV5
Nu4IrvxMdDfpEpB5CW6GLuw2U0Ap98hB0PCh6FvwjteOm5ZEupqVNoPlnozTp5Pt
18c2iOMJ
-----END CERTIFICATE-----
