Certificate:
    Data:
        Version: 3 (0x2)
        Serial Number: 268435663 (0x100000cf)
    Signature Algorithm: sha1WithRSAEncryption
        Issuer: C=DE, ST=Hessen, O=privacyidea, CN=CA001
        Validity
            Not Before: Aug 15 12:36:15 2016 GMT
            Not After : Aug 15 12:36:15 2017 GMT
        Subject: CN=selfservice,CN=user,O=realm1/emailAddress=meine
        Subject Public Key Info:
            Public Key Algorithm: rsaEncryption
                Public-Key: (2048 bit)
                Modulus:
                    00:cf:3c:d4:33:0e:12:c4:e6:da:cd:b6:56:a1:1c:
                    26:bb:26:1c:8a:4a:73:a8:58:8a:b6:1e:b3:8b:99:
                    d2:1d:07:c2:92:89:79:c0:69:d8:c8:df:28:61:98:
                    1e:b3:fe:ae:2b:bd:78:a9:f7:6e:47:dc:a3:a0:16:
                    8c:85:02:c1:4e:92:fd:72:6e:f0:c8:03:29:9b:b8:
                    00:6e:c0:83:95:c8:34:20:36:9c:b3:e5:e4:e6:76:
                    73:a3:1a:ad:40:96:e0:53:54:00:ec:76:79:9a:c6:
                    0d:7e:b6:bd:29:ec:83:f3:cb:89:a4:cb:6c:00:ba:
                    0c:c5:78:0f:ff:69:b8:94:f4:04:70:43:3f:d8:9e:
                    d7:a7:fb:5d:ce:75:8e:da:e7:c4:07:b1:9d:de:6f:
                    88:4b:b6:4d:9a:cf:f9:bc:fa:9f:cd:32:6d:f6:3a:
                    0b:0d:23:42:78:ec:97:42:bf:0e:4d:60:56:e1:d3:
                    02:f2:19:cb:84:57:90:e5:70:a1:a2:83:35:86:e2:
                    da:86:9f:f9:8a:c4:79:b3:52:28:da:cb:bb:34:ca:
                    d3:da:91:4a:cf:8d:76:a2:b2:6b:9b:f9:96:fd:09:
                    2a:da:11:23:4d:f0:cb:d6:b2:b1:0e:12:6c:9a:19:
                    65:98:87:ca:e4:ee:24:ce:44:ac:90:8f:9d:1b:c5:
                    2a:9d
                Exponent: 65537 (0x10001)
        X509v3 extensions:
            X509v3 Key Usage: 
                Digital Signature, Key Encipherment
            X509v3 Basic Constraints: 
                CA:FALSE
            Netscape Cert Type: 
                SSL Server
            Netscape Comment: 
                OpenSSL Generated Server Certificate
            X509v3 Subject Key Identifier: 
                4D:07:90:AD:FF:1D:0D:E7:1A:DD:D6:2E:FA:BA:34:CB:AA:1F:24:C6
            X509v3 Authority Key Identifier: 
                keyid:F4:A7:C0:CC:91:46:AF:64:F3:91:F2:27:F8:C8:B2:6F:8A:87:32:73
                DirName:/C=DE/ST=Hessen/O=privacyidea/CN=CA001
                serial:FB:C8:EB:AC:83:CD:12:07

            X509v3 Extended Key Usage: 
                TLS Web Server Authentication
    Signature Algorithm: sha1WithRSAEncryption
         57:33:34:5d:fd:84:4b:d0:1b:31:1c:36:0d:b7:47:d2:15:de:
         8b:51:fc:2c:68:99:6b:33:f5:75:e5:c6:ac:85:5f:2b:a7:fc:
         e3:bc:83:b5:97:f7:b9:22:02:90:6f:4f:c2:01:3d:e8:b6:25:
         cc:63:e1:72:ea:ad:82:4c:fb:62:ac:fb:84:54:16:a4:07:20:
         d0:0c:79:87:b2:cc:9f:88:d4:55:9e:0b:ac:7b:e6:ec:f2:0b:
         91:73:27:1b:fe:ce:b2:f4:3c:4f:76:fb:75:6b:1a:e7:f2:b8:
         81:6c:ef:35:4a:35:c9:c9:c0:8c:fd:4d:74:1b:31:7e:7a:dd:
         6d:70:1e:39:2c:e6:e0:74:08:31:0a:22:67:37:1f:04:d7:31:
         1d:e9:92:0d:7e:15:a1:70:b0:2e:6a:87:a4:35:da:f1:9d:b1:
         f5:51:54:e5:12:9c:56:fc:45:c9:d3:f9:ba:9d:56:b2:f0:a1:
         1f:41:96:ff:db:f2:aa:b1:c2:c6:f8:dc:ec:b7:37:34:df:ed:
         9e:56:ed:0b:6e:b0:c2:e8:56:d9:74:a5:2d:7f:d6:03:f7:6f:
         6f:17:ae:4f:c3:00:3e:f7:a4:bf:f6:8e:a9:e0:d7:ef:ce:95:
         43:ea:97:61:ba:9c:6c:dd:1c:90:5d:73:d2:5a:10:0d:15:9f:
         5c:07:6f:17
-----BEGIN CERTIFICATE-----
MIIEDzCCAvegAwIBAgIEEAAAzzANBgkqhkiG9w0BAQUFADBEMQswCQYDVQQGEwJE
RTEPMA0GA1UECAwGSGVzc2VuMRQwEgYDVQQKDAtwcml2YWN5aWRlYTEOMAwGA1UE
AwwFQ0EwMDEwHhcNMTYwODE1MTIzNjE1WhcNMTcwODE1MTIzNjE1WjA9MSUwIwYD
VQQDExxzZWxmc2VydmljZSxDTj11c2VyLE89cmVhbG0xMRQwEgYJKoZIhvcNAQkB
FgVtZWluZTCCASIwDQYJKoZIhvcNAQEBBQADggEPADCCAQoCggEBAM881DMOEsTm
2s22VqEcJrsmHIpKc6hYirYes4uZ0h0HwpKJecBp2MjfKGGYHrP+riu9eKn3bkfc
o6AWjIUCwU6S/XJu8MgDKZu4AG7Ag5XINCA2nLPl5OZ2c6MarUCW4FNUAOx2eZrG
DX62vSnsg/PLiaTLbAC6DMV4D/9puJT0BHBDP9ie16f7Xc51jtrnxAexnd5viEu2
TZrP+bz6n80ybfY6Cw0jQnjsl0K/Dk1gVuHTAvIZy4RXkOVwoaKDNYbi2oaf+YrE
ebNSKNrLuzTK09qRSs+NdqKya5v5lv0JKtoRI03wy9aysQ4SbJoZZZiHyuTuJM5E
rJCPnRvFKp0CAwEAAaOCAQ4wggEKMAsGA1UdDwQEAwIFoDAJBgNVHRMEAjAAMBEG
CWCGSAGG+EIBAQQEAwIGQDAzBglghkgBhvhCAQ0EJhYkT3BlblNTTCBHZW5lcmF0
ZWQgU2VydmVyIENlcnRpZmljYXRlMB0GA1UdDgQWBBRNB5Ct/x0N5xrd1i76ujTL
qh8kxjB0BgNVHSMEbTBrgBT0p8DMkUavZPOR8if4yLJviocyc6FIpEYwRDELMAkG
A1UEBhMCREUxDzANBgNVBAgMBkhlc3NlbjEUMBIGA1UECgwLcHJpdmFjeWlkZWEx
DjAMBgNVBAMMBUNBMDAxggkA+8jrrIPNEgcwEwYDVR0lBAwwCgYIKwYBBQUHAwEw
DQYJKoZIhvcNAQEFBQADggEBAFczNF39hEvQGzEcNg23R9IV3otR/CxomWsz9XXl
xqyFXyun/OO8g7WX97kiApBvT8IBPei2Jcxj4XLqrYJM+2Ks+4RUFqQHINAMeYey
zJ+I1FWeC6x75uzyC5FzJxv+zrL0PE92+3VrGufyuIFs7zVKNcnJwIz9TXQbMX56
3W1wHjks5uB0CDEKImc3HwTXMR3pkg1+FaFwsC5qh6Q12vGdsfVRVOUSnFb8RcnT
+bqdVrLwoR9Blv/b8qqxwsb43Oy3NzTf7Z5W7QtusMLoVtl0pS1/1gP3b28Xrk/D
AD73pL/2jqng1+/OlUPql2G6nGzdHJBdc9JaEA0Vn1wHbxc=
-----END CERTIFICATE-----
