Certificate:
    Data:
        Version: 3 (0x2)
        Serial Number: 268435700 (0x100000f4)
    Signature Algorithm: sha1WithRSAEncryption
        Issuer: C=DE, ST=Hessen, O=privacyidea, CN=CA001
        Validity
            Not Before: Apr 26 12:53:15 2016 GMT
            Not After : Apr 26 12:53:15 2017 GMT
        Subject: C=DE, ST=Hessen, O=privacyidea, CN=requester.localdomain
        Subject Public Key Info:
            Public Key Algorithm: rsaEncryption
                Public-Key: (2048 bit)
                Modulus:
                    00:cd:be:14:4f:fa:ce:01:3f:42:22:1b:1d:9c:af:
                    dd:92:d2:7f:db:6c:b7:3e:39:43:43:6b:13:03:f1:
                    05:f4:07:74:bc:76:69:28:0b:af:19:8e:d7:fc:e3:
                    cd:c6:58:f2:ca:7f:08:6d:53:fc:07:02:44:24:c6:
                    b4:34:4c:8c:04:fe:33:0e:40:e2:20:ba:02:73:5a:
                    f7:f5:4f:63:6e:cc:c6:b6:df:54:1d:37:39:7d:51:
                    36:26:5f:bd:dc:3f:a8:8b:6b:a2:ae:b6:9d:d6:21:
                    e7:df:41:b8:7a:28:2a:68:48:ca:a8:2d:ed:e1:e9:
                    46:5e:5a:72:6d:b4:84:38:87:91:fd:94:11:0b:28:
                    84:c6:c2:2f:2a:fb:01:f9:36:7a:09:75:d1:33:88:
                    3c:73:41:5b:c8:bf:94:89:70:a1:f0:c0:b9:2e:50:
                    53:1e:b1:17:64:69:f4:2d:81:e0:a9:0d:0e:32:e9:
                    ba:55:8a:85:f1:1b:6f:49:79:b4:7f:88:c3:0d:3e:
                    54:88:9b:3d:1f:38:8c:04:f3:ee:6a:63:2b:f5:c6:
                    db:b4:83:aa:c4:78:41:3a:7d:4b:e1:c8:3e:71:ca:
                    1b:61:59:ea:c6:c4:ca:32:5e:c9:e9:bf:12:29:e6:
                    c6:c3:63:fe:a0:55:da:7a:f1:60:98:4d:26:ed:fa:
                    70:2d
                Exponent: 65537 (0x10001)
        X509v3 extensions:
            X509v3 Key Usage: 
                Digital Signature, Key Encipherment
            X509v3 Basic Constraints: 
                CA:FALSE
            Netscape Cert Type: 
                SSL Server
            Netscape Comment: 
                OpenSSL Generated Server Certificate
            X509v3 Subject Key Identifier: 
                53:3F:ED:5D:09:07:B3:65:7B:AB:45:C9:24:5B:09:77:80:0A:96:ED
            X509v3 Authority Key Identifier: 
                keyid:F4:A7:C0:CC:91:46:AF:64:F3:91:F2:27:F8:C8:B2:6F:8A:87:32:73
                DirName:/C=DE/ST=Hessen/O=privacyidea/CN=CA001
                serial:FB:C8:EB:AC:83:CD:12:07

            X509v3 Extended Key Usage: 
                TLS Web Server Authentication
    Signature Algorithm: sha1WithRSAEncryption
         9a:55:90:cf:58:e0:32:73:c5:12:73:05:98:85:67:2a:ae:e6:
         57:bd:2c:3b:5c:8c:af:c7:a5:e4:84:a6:17:85:3e:c6:12:13:
         65:12:43:a5:04:f3:4d:95:2c:4e:ce:da:44:a7:82:30:f9:a2:
         59:8d:99:7d:7a:56:9f:cf:3f:0f:ab:8b:5d:7c:70:bc:41:60:
         c8:e7:1b:bb:33:67:42:69:c5:73:02:c6:21:2b:03:79:45:99:
         83:90:9a:f3:01:38:f4:42:e2:3d:ac:ca:5d:45:0f:73:ae:ef:
         7e:f7:69:0e:08:19:30:54:75:86:65:85:96:da:d4:90:32:94:
         e4:21:ad:94:77:bc:2b:e7:cb:29:3a:af:0b:04:2d:c8:fb:87:
         c8:7b:0c:f4:10:6a:ee:0a:87:65:d0:8a:f3:6e:49:2a:ee:16:
         18:d0:5d:f1:4e:39:62:05:fe:41:91:ca:b7:bc:ed:cb:c4:0f:
         cc:ed:a6:cc:d8:cf:67:25:77:3e:71:9c:4b:13:70:db:55:d7:
         97:c4:a8:dd:b9:35:1d:d6:7a:20:7d:3a:20:c2:79:c7:b5:c6:
         d6:f1:f6:e7:13:d9:45:12:0e:d8:eb:d0:be:72:5f:2b:6b:57:
         f4:3b:ae:55:92:e6:2e:0a:ad:29:48:15:17:78:c3:6c:c8:e0:
         af:af:a2:ed
-----BEGIN CERTIFICATE-----
MIIEJjCCAw6gAwIBAgIEEAAA9DANBgkqhkiG9w0BAQUFADBEMQswCQYDVQQGEwJE
RTEPMA0GA1UECAwGSGVzc2VuMRQwEgYDVQQKDAtwcml2YWN5aWRlYTEOMAwGA1UE
AwwFQ0EwMDEwHhcNMTYwNDI2MTI1MzE1WhcNMTcwNDI2MTI1MzE1WjBUMQswCQYD
VQQGEwJERTEPMA0GA1UECAwGSGVzc2VuMRQwEgYDVQQKDAtwcml2YWN5aWRlYTEe
MBwGA1UEAwwVcmVxdWVzdGVyLmxvY2FsZG9tYWluMIIBIjANBgkqhkiG9w0BAQEF
AAOCAQ8AMIIBCgKCAQEAzb4UT/rOAT9CIhsdnK/dktJ/22y3PjlDQ2sTA/EF9Ad0
vHZpKAuvGY7X/OPNxljyyn8IbVP8BwJEJMa0NEyMBP4zDkDiILoCc1r39U9jbszG
tt9UHTc5fVE2Jl+93D+oi2uirrad1iHn30G4eigqaEjKqC3t4elGXlpybbSEOIeR
/ZQRCyiExsIvKvsB+TZ6CXXRM4g8c0FbyL+UiXCh8MC5LlBTHrEXZGn0LYHgqQ0O
Mum6VYqF8RtvSXm0f4jDDT5UiJs9HziMBPPuamMr9cbbtIOqxHhBOn1L4cg+ccob
YVnqxsTKMl7J6b8SKebGw2P+oFXaevFgmE0m7fpwLQIDAQABo4IBDjCCAQowCwYD
VR0PBAQDAgWgMAkGA1UdEwQCMAAwEQYJYIZIAYb4QgEBBAQDAgZAMDMGCWCGSAGG
+EIBDQQmFiRPcGVuU1NMIEdlbmVyYXRlZCBTZXJ2ZXIgQ2VydGlmaWNhdGUwHQYD
VR0OBBYEFFM/7V0JB7Nle6tFySRbCXeACpbtMHQGA1UdIwRtMGuAFPSnwMyRRq9k
85HyJ/jIsm+KhzJzoUikRjBEMQswCQYDVQQGEwJERTEPMA0GA1UECAwGSGVzc2Vu
MRQwEgYDVQQKDAtwcml2YWN5aWRlYTEOMAwGA1UEAwwFQ0EwMDGCCQD7yOusg80S
BzATBgNVHSUEDDAKBggrBgEFBQcDATANBgkqhkiG9w0BAQUFAAOCAQEAmlWQz1jg
MnPFEnMFmIVnKq7mV70sO1yMr8el5ISmF4U+xhITZRJDpQTzTZUsTs7aRKeCMPmi
WY2ZfXpWn88/D6uLXXxwvEFgyOcbuzNnQmnFcwLGISsDeUWZg5Ca8wE49ELiPazK
XUUPc67vfvdpDggZMFR1hmWFltrUkDKU5CGtlHe8K+fLKTqvCwQtyPuHyHsM9BBq
7gqHZdCK825JKu4WGNBd8U45YgX+QZHKt7zty8QPzO2mzNjPZyV3PnGcSxNw21XX
l8So3bk1HdZ6IH06IMJ5x7XG1vH25xPZRRIO2OvQvnJfK2tX9DuuVZLmLgqtKUgV
F3jDbMjgr6+i7Q==
-----END CERTIFICATE-----
