Certificate:
    Data:
        Version: 3 (0x2)
        Serial Number: 268435680 (0x100000e0)
    Signature Algorithm: sha1WithRSAEncryption
        Issuer: C=DE, ST=Hessen, O=privacyidea, CN=CA001
        Validity
            Not Before: Apr 26 09:12:30 2016 GMT
            Not After : Apr 26 09:12:30 2017 GMT
        Subject: C=DE, ST=Hessen, O=privacyidea, CN=requester.localdomain
        Subject Public Key Info:
            Public Key Algorithm: rsaEncryption
                Public-Key: (2048 bit)
                Modulus:
                    00:cd:be:14:4f:fa:ce:01:3f:42:22:1b:1d:9c:af:
                    dd:92:d2:7f:db:6c:b7:3e:39:43:43:6b:13:03:f1:
                    05:f4:07:74:bc:76:69:28:0b:af:19:8e:d7:fc:e3:
                    cd:c6:58:f2:ca:7f:08:6d:53:fc:07:02:44:24:c6:
                    b4:34:4c:8c:04:fe:33:0e:40:e2:20:ba:02:73:5a:
                    f7:f5:4f:63:6e:cc:c6:b6:df:54:1d:37:39:7d:51:
                    36:26:5f:bd:dc:3f:a8:8b:6b:a2:ae:b6:9d:d6:21:
                    e7:df:41:b8:7a:28:2a:68:48:ca:a8:2d:ed:e1:e9:
                    46:5e:5a:72:6d:b4:84:38:87:91:fd:94:11:0b:28:
                    84:c6:c2:2f:2a:fb:01:f9:36:7a:09:75:d1:33:88:
                    3c:73:41:5b:c8:bf:94:89:70:a1:f0:c0:b9:2e:50:
                    53:1e:b1:17:64:69:f4:2d:81:e0:a9:0d:0e:32:e9:
                    ba:55:8a:85:f1:1b:6f:49:79:b4:7f:88:c3:0d:3e:
                    54:88:9b:3d:1f:38:8c:04:f3:ee:6a:63:2b:f5:c6:
                    db:b4:83:aa:c4:78:41:3a:7d:4b:e1:c8:3e:71:ca:
                    1b:61:59:ea:c6:c4:ca:32:5e:c9:e9:bf:12:29:e6:
                    c6:c3:63:fe:a0:55:da:7a:f1:60:98:4d:26:ed:fa:
                    70:2d
                Exponent: 65537 (0x10001)
        X509v3 extensions:
            X509v3 Key Usage: 
                Digital Signature, Key Encipherment
            X509v3 Basic Constraints: 
                CA:FALSE
            Netscape Cert Type: 
                SSL Server
            Netscape Comment: 
                OpenSSL Generated Server Certificate
            X509v3 Subject Key Identifier: 
                53:3F:ED:5D:09:07:B3:65:7B:AB:45:C9:24:5B:09:77:80:0A:96:ED
            X509v3 Authority Key Identifier: 
                keyid:F4:A7:C0:CC:91:46:AF:64:F3:91:F2:27:F8:C8:B2:6F:8A:87:32:73
                DirName:/C=DE/ST=Hessen/O=privacyidea/CN=CA001
                serial:FB:C8:EB:AC:83:CD:12:07

            X509v3 Extended Key Usage: 
                TLS Web Server Authentication
    Signature Algorithm: sha1WithRSAEncryption
         bd:b6:79:67:d7:c7:e2:2e:b8:67:fa:ac:91:be:d8:7a:ac:b7:
         a0:e3:5a:8c:6d:90:65:60:6c:d9:f4:e5:57:a4:e9:c4:4b:8c:
         93:c3:b8:29:3f:5a:81:38:77:e3:01:30:f5:16:d2:3f:b1:7b:
         b0:02:32:e2:fb:9b:09:fc:15:34:df:c6:2c:46:96:42:f5:bd:
         3f:d4:bb:5c:a4:e8:40:1b:b1:28:1b:a2:82:cb:24:29:b4:f0:
         7f:79:d3:4f:7f:a6:f0:35:c8:cc:69:48:89:36:ab:95:86:60:
         f3:86:29:1a:97:b7:b3:96:3c:50:4c:83:b8:33:5a:eb:2d:97:
         b0:d4:1b:39:4f:07:c5:86:b6:d6:53:c8:a9:f9:96:15:a6:1d:
         d0:2e:e3:94:87:9e:9f:ac:5c:73:ce:c2:3d:c1:40:de:ab:fa:
         66:e5:a9:f5:9c:42:7d:c8:77:9b:72:25:40:43:86:b1:1b:0f:
         34:9d:72:dc:6c:50:03:bf:3e:09:d8:e0:8e:0f:ca:e2:b6:7e:
         dd:d8:45:b6:60:95:c3:1b:d5:c3:1f:4a:c0:d4:0f:5e:19:70:
         b4:29:d6:65:d4:70:c1:58:d7:90:5c:14:6a:2c:d2:0b:2a:50:
         03:fb:26:cc:22:e6:d3:f0:c0:06:58:7a:5b:73:1f:66:68:05:
         74:3c:d2:0e
-----BEGIN CERTIFICATE-----
MIIEJjCCAw6gAwIBAgIEEAAA4DANBgkqhkiG9w0BAQUFADBEMQswCQYDVQQGEwJE
RTEPMA0GA1UECAwGSGVzc2VuMRQwEgYDVQQKDAtwcml2YWN5aWRlYTEOMAwGA1UE
AwwFQ0EwMDEwHhcNMTYwNDI2MDkxMjMwWhcNMTcwNDI2MDkxMjMwWjBUMQswCQYD
VQQGEwJERTEPMA0GA1UECAwGSGVzc2VuMRQwEgYDVQQKDAtwcml2YWN5aWRlYTEe
MBwGA1UEAwwVcmVxdWVzdGVyLmxvY2FsZG9tYWluMIIBIjANBgkqhkiG9w0BAQEF
AAOCAQ8AMIIBCgKCAQEAzb4UT/rOAT9CIhsdnK/dktJ/22y3PjlDQ2sTA/EF9Ad0
vHZpKAuvGY7X/OPNxljyyn8IbVP8BwJEJMa0NEyMBP4zDkDiILoCc1r39U9jbszG
tt9UHTc5fVE2Jl+93D+oi2uirrad1iHn30G4eigqaEjKqC3t4elGXlpybbSEOIeR
/ZQRCyiExsIvKvsB+TZ6CXXRM4g8c0FbyL+UiXCh8MC5LlBTHrEXZGn0LYHgqQ0O
Mum6VYqF8RtvSXm0f4jDDT5UiJs9HziMBPPuamMr9cbbtIOqxHhBOn1L4cg+ccob
YVnqxsTKMl7J6b8SKebGw2P+oFXaevFgmE0m7fpwLQIDAQABo4IBDjCCAQowCwYD
VR0PBAQDAgWgMAkGA1UdEwQCMAAwEQYJYIZIAYb4QgEBBAQDAgZAMDMGCWCGSAGG
+EIBDQQmFiRPcGVuU1NMIEdlbmVyYXRlZCBTZXJ2ZXIgQ2VydGlmaWNhdGUwHQYD
VR0OBBYEFFM/7V0JB7Nle6tFySRbCXeACpbtMHQGA1UdIwRtMGuAFPSnwMyRRq9k
85HyJ/jIsm+KhzJzoUikRjBEMQswCQYDVQQGEwJERTEPMA0GA1UECAwGSGVzc2Vu
MRQwEgYDVQQKDAtwcml2YWN5aWRlYTEOMAwGA1UEAwwFQ0EwMDGCCQD7yOusg80S
BzATBgNVHSUEDDAKBggrBgEFBQcDATANBgkqhkiG9w0BAQUFAAOCAQEAvbZ5Z9fH
4i64Z/qskb7Yeqy3oONajG2QZWBs2fTlV6TpxEuMk8O4KT9agTh34wEw9RbSP7F7
sAIy4vubCfwVNN/GLEaWQvW9P9S7XKToQBuxKBuigsskKbTwf3nTT3+m8DXIzGlI
iTarlYZg84YpGpe3s5Y8UEyDuDNa6y2XsNQbOU8HxYa21lPIqfmWFaYd0C7jlIee
n6xcc87CPcFA3qv6ZuWp9ZxCfch3m3IlQEOGsRsPNJ1y3GxQA78+Cdjgjg/K4rZ+
3dhFtmCVwxvVwx9KwNQPXhlwtCnWZdRwwVjXkFwUaizSCypQA/smzCLm0/DABlh6
W3MfZmgFdDzSDg==
-----END CERTIFICATE-----
