Certificate:
    Data:
        Version: 3 (0x2)
        Serial Number: 268435696 (0x100000f0)
    Signature Algorithm: sha1WithRSAEncryption
        Issuer: C=DE, ST=Hessen, O=privacyidea, CN=CA001
        Validity
            Not Before: Apr 26 12:48:20 2016 GMT
            Not After : Apr 26 12:48:20 2017 GMT
        Subject: C=DE, ST=Hessen, O=privacyidea, CN=requester.localdomain
        Subject Public Key Info:
            Public Key Algorithm: rsaEncryption
                Public-Key: (2048 bit)
                Modulus:
                    00:cd:be:14:4f:fa:ce:01:3f:42:22:1b:1d:9c:af:
                    dd:92:d2:7f:db:6c:b7:3e:39:43:43:6b:13:03:f1:
                    05:f4:07:74:bc:76:69:28:0b:af:19:8e:d7:fc:e3:
                    cd:c6:58:f2:ca:7f:08:6d:53:fc:07:02:44:24:c6:
                    b4:34:4c:8c:04:fe:33:0e:40:e2:20:ba:02:73:5a:
                    f7:f5:4f:63:6e:cc:c6:b6:df:54:1d:37:39:7d:51:
                    36:26:5f:bd:dc:3f:a8:8b:6b:a2:ae:b6:9d:d6:21:
                    e7:df:41:b8:7a:28:2a:68:48:ca:a8:2d:ed:e1:e9:
                    46:5e:5a:72:6d:b4:84:38:87:91:fd:94:11:0b:28:
                    84:c6:c2:2f:2a:fb:01:f9:36:7a:09:75:d1:33:88:
                    3c:73:41:5b:c8:bf:94:89:70:a1:f0:c0:b9:2e:50:
                    53:1e:b1:17:64:69:f4:2d:81:e0:a9:0d:0e:32:e9:
                    ba:55:8a:85:f1:1b:6f:49:79:b4:7f:88:c3:0d:3e:
                    54:88:9b:3d:1f:38:8c:04:f3:ee:6a:63:2b:f5:c6:
                    db:b4:83:aa:c4:78:41:3a:7d:4b:e1:c8:3e:71:ca:
                    1b:61:59:ea:c6:c4:ca:32:5e:c9:e9:bf:12:29:e6:
                    c6:c3:63:fe:a0:55:da:7a:f1:60:98:4d:26:ed:fa:
                    70:2d
                Exponent: 65537 (0x10001)
        X509v3 extensions:
            X509v3 Key Usage: 
                Digital Signature, Key Encipherment
            X509v3 Basic Constraints: 
                CA:FALSE
            Netscape Cert Type: 
                SSL Server
            Netscape Comment: 
                OpenSSL Generated Server Certificate
            X509v3 Subject Key Identifier: 
                53:3F:ED:5D:09:07:B3:65:7B:AB:45:C9:24:5B:09:77:80:0A:96:ED
            X509v3 Authority Key Identifier: 
                keyid:F4:A7:C0:CC:91:46:AF:64:F3:91:F2:27:F8:C8:B2:6F:8A:87:32:73
                DirName:/C=DE/ST=Hessen/O=privacyidea/CN=CA001
                serial:FB:C8:EB:AC:83:CD:12:07

            X509v3 Extended Key Usage: 
                TLS Web Server Authentication
    Signature Algorithm: sha1WithRSAEncryption
         11:72:59:43:c2:da:83:64:67:0b:96:86:db:4d:d0:25:62:ce:
         dc:32:82:96:55:3b:85:48:51:02:77:0f:8c:0d:54:5a:76:5e:
         17:e7:4d:94:4f:77:29:d9:39:5a:ed:ae:24:58:a8:47:13:6b:
         2c:15:ed:6f:5f:fd:62:10:22:42:f6:dd:49:e7:fb:6e:4c:7c:
         a3:51:b3:16:f7:06:07:28:7a:72:68:de:88:1f:58:9d:f1:fc:
         cf:b8:ed:b2:76:91:f2:7c:a8:75:db:ae:c0:35:cc:b6:99:05:
         c8:f3:79:a6:67:e5:36:5f:bb:a0:ea:55:a9:f3:14:4f:c6:33:
         c7:2d:81:7e:99:88:d9:10:c9:4a:48:58:91:b1:54:80:e7:ae:
         78:ef:e8:10:31:57:15:09:60:97:4a:4f:84:f5:7b:58:92:63:
         fe:1a:df:88:81:cd:ae:b3:bc:bc:92:75:fc:af:7a:ac:13:fc:
         cd:9a:7a:97:a3:81:f8:40:f5:96:1e:35:bc:4b:45:dd:8e:f7:
         41:e7:3e:b4:06:c0:7b:3c:51:48:17:96:e1:32:9a:48:62:e7:
         5c:f5:e7:68:9e:19:11:17:85:89:d3:b1:e8:6d:0b:c3:cb:85:
         74:fd:29:a5:e9:b4:2d:91:c0:58:e4:1d:f2:2e:57:3f:40:03:
         7e:dd:bc:51
-----BEGIN CERTIFICATE-----
MIIEJjCCAw6gAwIBAgIEEAAA8DANBgkqhkiG9w0BAQUFADBEMQswCQYDVQQGEwJE
RTEPMA0GA1UECAwGSGVzc2VuMRQwEgYDVQQKDAtwcml2YWN5aWRlYTEOMAwGA1UE
AwwFQ0EwMDEwHhcNMTYwNDI2MTI0ODIwWhcNMTcwNDI2MTI0ODIwWjBUMQswCQYD
VQQGEwJERTEPMA0GA1UECAwGSGVzc2VuMRQwEgYDVQQKDAtwcml2YWN5aWRlYTEe
MBwGA1UEAwwVcmVxdWVzdGVyLmxvY2FsZG9tYWluMIIBIjANBgkqhkiG9w0BAQEF
AAOCAQ8AMIIBCgKCAQEAzb4UT/rOAT9CIhsdnK/dktJ/22y3PjlDQ2sTA/EF9Ad0
vHZpKAuvGY7X/OPNxljyyn8IbVP8BwJEJMa0NEyMBP4zDkDiILoCc1r39U9jbszG
tt9UHTc5fVE2Jl+93D+oi2uirrad1iHn30G4eigqaEjKqC3t4elGXlpybbSEOIeR
/ZQRCyiExsIvKvsB+TZ6CXXRM4g8c0FbyL+UiXCh8MC5LlBTHrEXZGn0LYHgqQ0O
Mum6VYqF8RtvSXm0f4jDDT5UiJs9HziMBPPuamMr9cbbtIOqxHhBOn1L4cg+ccob
YVnqxsTKMl7J6b8SKebGw2P+oFXaevFgmE0m7fpwLQIDAQABo4IBDjCCAQowCwYD
VR0PBAQDAgWgMAkGA1UdEwQCMAAwEQYJYIZIAYb4QgEBBAQDAgZAMDMGCWCGSAGG
+EIBDQQmFiRPcGVuU1NMIEdlbmVyYXRlZCBTZXJ2ZXIgQ2VydGlmaWNhdGUwHQYD
VR0OBBYEFFM/7V0JB7Nle6tFySRbCXeACpbtMHQGA1UdIwRtMGuAFPSnwMyRRq9k
85HyJ/jIsm+KhzJzoUikRjBEMQswCQYDVQQGEwJERTEPMA0GA1UECAwGSGVzc2Vu
MRQwEgYDVQQKDAtwcml2YWN5aWRlYTEOMAwGA1UEAwwFQ0EwMDGCCQD7yOusg80S
BzATBgNVHSUEDDAKBggrBgEFBQcDATANBgkqhkiG9w0BAQUFAAOCAQEAEXJZQ8La
g2RnC5aG203QJWLO3DKCllU7hUhRAncPjA1UWnZeF+dNlE93Kdk5Wu2uJFioRxNr
LBXtb1/9YhAiQvbdSef7bkx8o1GzFvcGByh6cmjeiB9YnfH8z7jtsnaR8nyodduu
wDXMtpkFyPN5pmflNl+7oOpVqfMUT8Yzxy2BfpmI2RDJSkhYkbFUgOeueO/oEDFX
FQlgl0pPhPV7WJJj/hrfiIHNrrO8vJJ1/K96rBP8zZp6l6OB+ED1lh41vEtF3Y73
Qec+tAbAezxRSBeW4TKaSGLnXPXnaJ4ZEReFidOx6G0Lw8uFdP0ppem0LZHAWOQd
8i5XP0ADft28UQ==
-----END CERTIFICATE-----
