Certificate:
    Data:
        Version: 3 (0x2)
        Serial Number: 268435698 (0x100000f2)
    Signature Algorithm: sha1WithRSAEncryption
        Issuer: C=DE, ST=Hessen, O=privacyidea, CN=CA001
        Validity
            Not Before: Apr 26 12:49:08 2016 GMT
            Not After : Apr 26 12:49:08 2017 GMT
        Subject: C=DE, ST=Hessen, O=privacyidea, CN=requester.localdomain
        Subject Public Key Info:
            Public Key Algorithm: rsaEncryption
                Public-Key: (2048 bit)
                Modulus:
                    00:cd:be:14:4f:fa:ce:01:3f:42:22:1b:1d:9c:af:
                    dd:92:d2:7f:db:6c:b7:3e:39:43:43:6b:13:03:f1:
                    05:f4:07:74:bc:76:69:28:0b:af:19:8e:d7:fc:e3:
                    cd:c6:58:f2:ca:7f:08:6d:53:fc:07:02:44:24:c6:
                    b4:34:4c:8c:04:fe:33:0e:40:e2:20:ba:02:73:5a:
                    f7:f5:4f:63:6e:cc:c6:b6:df:54:1d:37:39:7d:51:
                    36:26:5f:bd:dc:3f:a8:8b:6b:a2:ae:b6:9d:d6:21:
                    e7:df:41:b8:7a:28:2a:68:48:ca:a8:2d:ed:e1:e9:
                    46:5e:5a:72:6d:b4:84:38:87:91:fd:94:11:0b:28:
                    84:c6:c2:2f:2a:fb:01:f9:36:7a:09:75:d1:33:88:
                    3c:73:41:5b:c8:bf:94:89:70:a1:f0:c0:b9:2e:50:
                    53:1e:b1:17:64:69:f4:2d:81:e0:a9:0d:0e:32:e9:
                    ba:55:8a:85:f1:1b:6f:49:79:b4:7f:88:c3:0d:3e:
                    54:88:9b:3d:1f:38:8c:04:f3:ee:6a:63:2b:f5:c6:
                    db:b4:83:aa:c4:78:41:3a:7d:4b:e1:c8:3e:71:ca:
                    1b:61:59:ea:c6:c4:ca:32:5e:c9:e9:bf:12:29:e6:
                    c6:c3:63:fe:a0:55:da:7a:f1:60:98:4d:26:ed:fa:
                    70:2d
                Exponent: 65537 (0x10001)
        X509v3 extensions:
            X509v3 Key Usage: 
                Digital Signature, Key Encipherment
            X509v3 Basic Constraints: 
                CA:FALSE
            Netscape Cert Type: 
                SSL Server
            Netscape Comment: 
                OpenSSL Generated Server Certificate
            X509v3 Subject Key Identifier: 
                53:3F:ED:5D:09:07:B3:65:7B:AB:45:C9:24:5B:09:77:80:0A:96:ED
            X509v3 Authority Key Identifier: 
                keyid:F4:A7:C0:CC:91:46:AF:64:F3:91:F2:27:F8:C8:B2:6F:8A:87:32:73
                DirName:/C=DE/ST=Hessen/O=privacyidea/CN=CA001
                serial:FB:C8:EB:AC:83:CD:12:07

            X509v3 Extended Key Usage: 
                TLS Web Server Authentication
    Signature Algorithm: sha1WithRSAEncryption
         29:94:71:94:eb:1d:61:11:c0:34:3b:8b:99:d6:af:8b:67:a3:
         3d:bb:3f:f9:4a:9e:e7:9d:c1:54:72:62:c3:fc:59:2f:eb:db:
         e9:c9:a7:f9:6d:1d:b0:88:62:ab:e8:3f:5b:74:b2:8e:bf:a7:
         21:40:de:8c:52:97:7e:55:91:b8:27:dc:38:91:5c:ee:f2:3e:
         9a:24:25:27:a2:94:8a:c3:66:fc:e6:8e:63:3d:a4:50:cd:58:
         ad:a5:85:84:d0:d7:f3:2a:3f:be:08:ff:11:80:0c:de:b3:6b:
         8d:24:1c:ec:6a:f6:14:44:21:83:ea:12:1d:ee:f6:f9:dc:25:
         cb:a2:40:03:4b:b6:a4:63:a1:de:a4:b6:01:51:99:45:d6:4e:
         d3:49:ee:11:f6:82:a0:0a:b3:35:ac:2d:6e:8b:ce:62:8c:85:
         4e:0d:ee:77:ef:64:91:38:c8:5c:53:ae:0d:3d:8c:23:8d:9e:
         6e:48:13:f4:31:41:4b:62:5c:9c:ed:86:76:49:d5:b5:ce:da:
         dc:3a:23:80:ff:23:13:59:63:21:ee:ee:6c:e0:74:22:28:a0:
         3d:30:40:21:49:8b:94:76:eb:7b:af:a9:fa:09:95:c9:f7:9d:
         99:4c:8e:38:7d:3a:34:24:de:ad:ba:11:01:44:54:55:3a:53:
         90:de:64:69
-----BEGIN CERTIFICATE-----
MIIEJjCCAw6gAwIBAgIEEAAA8jANBgkqhkiG9w0BAQUFADBEMQswCQYDVQQGEwJE
RTEPMA0GA1UECAwGSGVzc2VuMRQwEgYDVQQKDAtwcml2YWN5aWRlYTEOMAwGA1UE
AwwFQ0EwMDEwHhcNMTYwNDI2MTI0OTA4WhcNMTcwNDI2MTI0OTA4WjBUMQswCQYD
VQQGEwJERTEPMA0GA1UECAwGSGVzc2VuMRQwEgYDVQQKDAtwcml2YWN5aWRlYTEe
MBwGA1UEAwwVcmVxdWVzdGVyLmxvY2FsZG9tYWluMIIBIjANBgkqhkiG9w0BAQEF
AAOCAQ8AMIIBCgKCAQEAzb4UT/rOAT9CIhsdnK/dktJ/22y3PjlDQ2sTA/EF9Ad0
vHZpKAuvGY7X/OPNxljyyn8IbVP8BwJEJMa0NEyMBP4zDkDiILoCc1r39U9jbszG
tt9UHTc5fVE2Jl+93D+oi2uirrad1iHn30G4eigqaEjKqC3t4elGXlpybbSEOIeR
/ZQRCyiExsIvKvsB+TZ6CXXRM4g8c0FbyL+UiXCh8MC5LlBTHrEXZGn0LYHgqQ0O
Mum6VYqF8RtvSXm0f4jDDT5UiJs9HziMBPPuamMr9cbbtIOqxHhBOn1L4cg+ccob
YVnqxsTKMl7J6b8SKebGw2P+oFXaevFgmE0m7fpwLQIDAQABo4IBDjCCAQowCwYD
VR0PBAQDAgWgMAkGA1UdEwQCMAAwEQYJYIZIAYb4QgEBBAQDAgZAMDMGCWCGSAGG
+EIBDQQmFiRPcGVuU1NMIEdlbmVyYXRlZCBTZXJ2ZXIgQ2VydGlmaWNhdGUwHQYD
VR0OBBYEFFM/7V0JB7Nle6tFySRbCXeACpbtMHQGA1UdIwRtMGuAFPSnwMyRRq9k
85HyJ/jIsm+KhzJzoUikRjBEMQswCQYDVQQGEwJERTEPMA0GA1UECAwGSGVzc2Vu
MRQwEgYDVQQKDAtwcml2YWN5aWRlYTEOMAwGA1UEAwwFQ0EwMDGCCQD7yOusg80S
BzATBgNVHSUEDDAKBggrBgEFBQcDATANBgkqhkiG9w0BAQUFAAOCAQEAKZRxlOsd
YRHANDuLmdavi2ejPbs/+Uqe553BVHJiw/xZL+vb6cmn+W0dsIhiq+g/W3Syjr+n
IUDejFKXflWRuCfcOJFc7vI+miQlJ6KUisNm/OaOYz2kUM1YraWFhNDX8yo/vgj/
EYAM3rNrjSQc7Gr2FEQhg+oSHe72+dwly6JAA0u2pGOh3qS2AVGZRdZO00nuEfaC
oAqzNawtbovOYoyFTg3ud+9kkTjIXFOuDT2MI42ebkgT9DFBS2JcnO2GdknVtc7a
3DojgP8jE1ljIe7ubOB0IiigPTBAIUmLlHbre6+p+gmVyfedmUyOOH06NCTerboR
AURUVTpTkN5kaQ==
-----END CERTIFICATE-----
