Certificate:
    Data:
        Version: 3 (0x2)
        Serial Number: 268435685 (0x100000e5)
    Signature Algorithm: sha1WithRSAEncryption
        Issuer: C=DE, ST=Hessen, O=privacyidea, CN=CA001
        Validity
            Not Before: Apr 26 09:14:38 2016 GMT
            Not After : Apr 26 09:14:38 2017 GMT
        Subject: OU=realm1, CN=cornelius/emailAddress=user@localhost.localdomain
        Subject Public Key Info:
            Public Key Algorithm: rsaEncryption
                Public-Key: (2048 bit)
                Modulus:
                    00:b7:e1:e7:8e:db:de:f6:47:76:11:a0:3f:c5:36:
                    fb:96:4f:de:9e:3e:48:29:bd:00:ee:ae:a5:c5:07:
                    18:39:bd:fa:7d:41:be:e0:40:1d:08:b0:e8:2d:f2:
                    96:85:01:73:93:4e:84:32:78:d7:9f:6a:39:86:84:
                    6d:79:fe:48:c6:9c:aa:c2:05:99:74:a4:c5:0b:19:
                    1d:da:08:8d:95:fc:f2:ba:85:1d:d4:77:73:23:58:
                    20:d8:95:13:52:3b:38:6a:28:6d:59:a0:82:54:20:
                    c2:26:dc:71:41:d4:c4:ba:01:b1:42:43:40:bb:22:
                    ba:c4:89:f7:bc:8b:56:cc:06:47:26:6d:ff:6c:8b:
                    63:ca:44:37:cb:bd:7d:90:8d:4f:2d:6e:59:17:e2:
                    57:38:a0:74:3a:7d:d2:b2:44:60:74:43:22:3d:0b:
                    d7:9c:97:fd:d1:9b:94:d9:1a:8e:e4:25:43:29:e9:
                    f6:97:ed:2d:a3:18:ae:6c:a2:a4:4a:df:2b:2a:cc:
                    0d:3a:ce:dd:23:cf:25:3b:cf:fd:16:cd:62:ec:36:
                    dc:17:c8:c2:f4:0e:54:4e:42:eb:f1:c7:cc:15:44:
                    83:63:98:25:a6:75:48:02:9b:53:f7:39:da:ae:b0:
                    67:31:63:0f:2e:85:67:31:ac:ad:a8:d3:ea:a2:9a:
                    4c:bb
                Exponent: 65537 (0x10001)
        X509v3 extensions:
            X509v3 Key Usage: 
                Digital Signature, Key Encipherment
            X509v3 Basic Constraints: 
                CA:FALSE
            Netscape Cert Type: 
                SSL Server
            Netscape Comment: 
                OpenSSL Generated Server Certificate
            X509v3 Subject Key Identifier: 
                07:89:D2:FE:1F:4B:69:F1:A2:4F:E1:67:2F:F9:C5:90:5F:87:9F:A6
            X509v3 Authority Key Identifier: 
                keyid:F4:A7:C0:CC:91:46:AF:64:F3:91:F2:27:F8:C8:B2:6F:8A:87:32:73
                DirName:/C=DE/ST=Hessen/O=privacyidea/CN=CA001
                serial:FB:C8:EB:AC:83:CD:12:07

            X509v3 Extended Key Usage: 
                TLS Web Server Authentication
    Signature Algorithm: sha1WithRSAEncryption
         46:0f:53:36:e9:e2:62:d4:c6:c2:ee:86:bc:7a:69:b7:12:7a:
         a5:0a:80:29:8f:3e:03:c9:8e:3d:a7:c1:52:e0:6d:9e:a1:6e:
         ce:af:bd:ad:f2:65:67:1b:d1:ea:50:f5:e5:02:4d:ee:30:44:
         59:fe:4e:79:90:eb:9c:44:30:dd:8d:95:be:c2:61:e2:74:e5:
         92:6c:bd:b8:bd:5d:76:61:12:52:f1:2c:61:08:46:96:a8:87:
         24:30:f0:65:2e:b2:41:db:18:ce:88:38:70:25:b7:a2:4b:ad:
         00:06:ef:c2:4e:96:07:d7:4d:e6:e0:3f:72:d7:e5:8f:42:77:
         7a:ab:20:9c:e0:3f:b5:d7:24:e0:a8:e7:3d:6c:6e:0a:b2:3e:
         97:cb:d4:6c:06:29:ac:5a:7b:6b:8f:b0:28:89:c6:01:fc:1a:
         5d:e3:27:d9:18:2e:34:10:da:cd:0b:6a:35:81:ef:b7:57:24:
         0b:23:e5:e5:6f:6f:cb:4d:f5:fc:47:98:bd:8f:7e:23:59:cf:
         d1:00:1d:fe:03:ec:5f:1c:e8:d8:7d:32:44:95:f3:a5:14:66:
         f7:bf:b5:1f:49:9a:10:43:40:66:50:1d:f2:47:e0:b9:35:b9:
         2c:6e:ee:52:5b:96:54:4d:d5:93:99:96:29:bd:1b:da:3f:b8:
         03:ae:ad:08
-----BEGIN CERTIFICATE-----
MIIEIjCCAwqgAwIBAgIEEAAA5TANBgkqhkiG9w0BAQUFADBEMQswCQYDVQQGEwJE
RTEPMA0GA1UECAwGSGVzc2VuMRQwEgYDVQQKDAtwcml2YWN5aWRlYTEOMAwGA1UE
AwwFQ0EwMDEwHhcNMTYwNDI2MDkxNDM4WhcNMTcwNDI2MDkxNDM4WjBQMQ8wDQYD
VQQLEwZyZWFsbTExEjAQBgNVBAMTCWNvcm5lbGl1czEpMCcGCSqGSIb3DQEJARYa
dXNlckBsb2NhbGhvc3QubG9jYWxkb21haW4wggEiMA0GCSqGSIb3DQEBAQUAA4IB
DwAwggEKAoIBAQC34eeO2972R3YRoD/FNvuWT96ePkgpvQDurqXFBxg5vfp9Qb7g
QB0IsOgt8paFAXOTToQyeNefajmGhG15/kjGnKrCBZl0pMULGR3aCI2V/PK6hR3U
d3MjWCDYlRNSOzhqKG1ZoIJUIMIm3HFB1MS6AbFCQ0C7IrrEife8i1bMBkcmbf9s
i2PKRDfLvX2QjU8tblkX4lc4oHQ6fdKyRGB0QyI9C9ecl/3Rm5TZGo7kJUMp6faX
7S2jGK5soqRK3ysqzA06zt0jzyU7z/0WzWLsNtwXyML0DlROQuvxx8wVRINjmCWm
dUgCm1P3OdqusGcxYw8uhWcxrK2o0+qimky7AgMBAAGjggEOMIIBCjALBgNVHQ8E
BAMCBaAwCQYDVR0TBAIwADARBglghkgBhvhCAQEEBAMCBkAwMwYJYIZIAYb4QgEN
BCYWJE9wZW5TU0wgR2VuZXJhdGVkIFNlcnZlciBDZXJ0aWZpY2F0ZTAdBgNVHQ4E
FgQUB4nS/h9LafGiT+FnL/nFkF+Hn6YwdAYDVR0jBG0wa4AU9KfAzJFGr2TzkfIn
+Miyb4qHMnOhSKRGMEQxCzAJBgNVBAYTAkRFMQ8wDQYDVQQIDAZIZXNzZW4xFDAS
BgNVBAoMC3ByaXZhY3lpZGVhMQ4wDAYDVQQDDAVDQTAwMYIJAPvI66yDzRIHMBMG
A1UdJQQMMAoGCCsGAQUFBwMBMA0GCSqGSIb3DQEBBQUAA4IBAQBGD1M26eJi1MbC
7oa8emm3EnqlCoApjz4DyY49p8FS4G2eoW7Or72t8mVnG9HqUPXlAk3uMERZ/k55
kOucRDDdjZW+wmHidOWSbL24vV12YRJS8SxhCEaWqIckMPBlLrJB2xjOiDhwJbei
S60ABu/CTpYH103m4D9y1+WPQnd6qyCc4D+11yTgqOc9bG4Ksj6Xy9RsBimsWntr
j7AoicYB/Bpd4yfZGC40ENrNC2o1ge+3VyQLI+Xlb2/LTfX8R5i9j34jWc/RAB3+
A+xfHOjYfTJElfOlFGb3v7UfSZoQQ0BmUB3yR+C5Nbksbu5SW5ZUTdWTmZYpvRva
P7gDrq0I
-----END CERTIFICATE-----
