Certificate:
    Data:
        Version: 3 (0x2)
        Serial Number: 268435697 (0x100000f1)
    Signature Algorithm: sha1WithRSAEncryption
        Issuer: C=DE, ST=Hessen, O=privacyidea, CN=CA001
        Validity
            Not Before: Apr 26 12:48:21 2016 GMT
            Not After : Apr 26 12:48:21 2017 GMT
        Subject: OU=realm1, CN=cornelius/emailAddress=user@localhost.localdomain
        Subject Public Key Info:
            Public Key Algorithm: rsaEncryption
                Public-Key: (2048 bit)
                Modulus:
                    00:ae:09:59:54:93:3e:1a:7f:bc:8e:55:f5:2a:dd:
                    85:b9:b6:23:d9:ed:47:dd:83:ab:e3:da:e0:bf:f3:
                    b9:9f:5c:92:f2:36:2c:f0:1e:b9:4f:48:60:53:f0:
                    81:cc:26:6d:46:3e:b2:a3:15:ff:bb:0e:fa:08:bd:
                    f0:1b:0b:eb:41:e7:ea:4b:6e:a5:ff:ff:ff:8d:e8:
                    7c:85:34:57:ca:aa:d4:1d:e8:01:e0:e0:19:43:f0:
                    1e:4f:ea:7a:3a:93:4a:37:e7:92:1b:a0:9d:a2:47:
                    5e:55:78:53:47:ca:9d:d1:fc:38:f6:1b:c1:39:09:
                    d0:31:8d:c4:eb:be:7e:d5:fd:71:5c:c3:c4:03:29:
                    5f:56:8c:ae:e4:94:64:01:55:ab:26:31:aa:ec:75:
                    8b:86:47:7e:80:be:e6:de:08:3d:8d:0f:2e:bb:f4:
                    5a:21:59:60:3b:a8:e9:e5:24:1e:3d:8e:dd:8e:b5:
                    8e:9d:71:be:eb:0d:f5:04:31:c3:81:93:2c:26:7a:
                    3d:5a:33:73:9e:ba:c7:68:3c:63:7d:40:40:b0:6b:
                    ea:fd:60:59:10:fb:bd:e7:4c:79:3a:be:e1:d6:35:
                    2e:4d:33:21:52:36:e4:d9:5c:ad:8d:1a:97:ac:9b:
                    60:44:0c:f0:fe:d5:b7:ac:18:ce:c4:b4:31:e8:bd:
                    63:7b
                Exponent: 65537 (0x10001)
        X509v3 extensions:
            X509v3 Key Usage: 
                Digital Signature, Key Encipherment
            X509v3 Basic Constraints: 
                CA:FALSE
            Netscape Cert Type: 
                SSL Server
            Netscape Comment: 
                OpenSSL Generated Server Certificate
            X509v3 Subject Key Identifier: 
                6B:1C:D5:FA:CE:18:52:63:14:12:19:45:AC:80:69:1B:5C:AA:B9:1C
            X509v3 Authority Key Identifier: 
                keyid:F4:A7:C0:CC:91:46:AF:64:F3:91:F2:27:F8:C8:B2:6F:8A:87:32:73
                DirName:/C=DE/ST=Hessen/O=privacyidea/CN=CA001
                serial:FB:C8:EB:AC:83:CD:12:07

            X509v3 Extended Key Usage: 
                TLS Web Server Authentication
    Signature Algorithm: sha1WithRSAEncryption
         3d:b9:cf:e6:8e:c9:13:bf:97:1e:93:ab:34:02:4b:4b:25:38:
         57:70:41:58:57:cf:1a:1f:0f:44:8b:8d:70:00:5a:a7:07:27:
         32:7a:84:fe:02:fe:f3:b8:98:ad:3b:33:45:9b:4b:04:52:4d:
         7c:ad:95:53:8c:76:de:cb:2b:92:81:8e:93:0a:34:a8:32:85:
         bd:87:01:c6:f3:ce:b4:53:86:fe:45:02:0e:b5:0b:f1:91:72:
         3c:80:ad:36:d9:54:f5:27:f7:bc:40:33:b1:4d:56:48:2d:fb:
         a5:d0:3c:e7:1f:f7:33:62:5f:37:e0:9e:9e:44:cd:b3:b8:a6:
         a7:8e:f6:84:fe:e4:ea:24:72:a9:de:93:98:4e:30:ac:d0:c6:
         f1:ec:44:96:12:c9:c1:9d:07:78:ba:5c:05:c8:be:e3:19:66:
         ea:f4:4c:0b:32:46:4d:7c:de:72:9f:76:6c:d9:4b:99:c3:c4:
         e5:e2:54:29:76:78:e2:9f:96:cc:17:03:ab:4a:f8:8d:63:97:
         72:cc:5d:5a:58:00:90:ef:4f:99:5d:57:68:ec:94:7a:80:4a:
         2b:f6:f8:36:17:0b:72:e4:1b:f4:65:6b:c7:23:1b:c5:ac:3b:
         a6:ef:fc:d3:60:68:fd:dd:21:8f:8f:cf:11:5a:1d:a3:f4:66:
         32:39:a8:03
-----BEGIN CERTIFICATE-----
MIIEIjCCAwqgAwIBAgIEEAAA8TANBgkqhkiG9w0BAQUFADBEMQswCQYDVQQGEwJE
RTEPMA0GA1UECAwGSGVzc2VuMRQwEgYDVQQKDAtwcml2YWN5aWRlYTEOMAwGA1UE
AwwFQ0EwMDEwHhcNMTYwNDI2MTI0ODIxWhcNMTcwNDI2MTI0ODIxWjBQMQ8wDQYD
VQQLEwZyZWFsbTExEjAQBgNVBAMTCWNvcm5lbGl1czEpMCcGCSqGSIb3DQEJARYa
dXNlckBsb2NhbGhvc3QubG9jYWxkb21haW4wggEiMA0GCSqGSIb3DQEBAQUAA4IB
DwAwggEKAoIBAQCuCVlUkz4af7yOVfUq3YW5tiPZ7Ufdg6vj2uC/87mfXJLyNizw
HrlPSGBT8IHMJm1GPrKjFf+7DvoIvfAbC+tB5+pLbqX///+N6HyFNFfKqtQd6AHg
4BlD8B5P6no6k0o355IboJ2iR15VeFNHyp3R/Dj2G8E5CdAxjcTrvn7V/XFcw8QD
KV9WjK7klGQBVasmMarsdYuGR36AvubeCD2NDy679FohWWA7qOnlJB49jt2OtY6d
cb7rDfUEMcOBkywmej1aM3OeusdoPGN9QECwa+r9YFkQ+73nTHk6vuHWNS5NMyFS
NuTZXK2NGpesm2BEDPD+1besGM7EtDHovWN7AgMBAAGjggEOMIIBCjALBgNVHQ8E
BAMCBaAwCQYDVR0TBAIwADARBglghkgBhvhCAQEEBAMCBkAwMwYJYIZIAYb4QgEN
BCYWJE9wZW5TU0wgR2VuZXJhdGVkIFNlcnZlciBDZXJ0aWZpY2F0ZTAdBgNVHQ4E
FgQUaxzV+s4YUmMUEhlFrIBpG1yquRwwdAYDVR0jBG0wa4AU9KfAzJFGr2TzkfIn
+Miyb4qHMnOhSKRGMEQxCzAJBgNVBAYTAkRFMQ8wDQYDVQQIDAZIZXNzZW4xFDAS
BgNVBAoMC3ByaXZhY3lpZGVhMQ4wDAYDVQQDDAVDQTAwMYIJAPvI66yDzRIHMBMG
A1UdJQQMMAoGCCsGAQUFBwMBMA0GCSqGSIb3DQEBBQUAA4IBAQA9uc/mjskTv5ce
k6s0AktLJThXcEFYV88aHw9Ei41wAFqnBycyeoT+Av7zuJitOzNFm0sEUk18rZVT
jHbeyyuSgY6TCjSoMoW9hwHG8860U4b+RQIOtQvxkXI8gK022VT1J/e8QDOxTVZI
Lful0DznH/czYl834J6eRM2zuKanjvaE/uTqJHKp3pOYTjCs0Mbx7ESWEsnBnQd4
ulwFyL7jGWbq9EwLMkZNfN5yn3Zs2UuZw8Tl4lQpdnjin5bMFwOrSviNY5dyzF1a
WACQ70+ZXVdo7JR6gEor9vg2Fwty5Bv0ZWvHIxvFrDum7/zTYGj93SGPj88RWh2j
9GYyOagD
-----END CERTIFICATE-----
