Certificate:
    Data:
        Version: 3 (0x2)
        Serial Number: 268435668 (0x100000d4)
    Signature Algorithm: sha1WithRSAEncryption
        Issuer: C=DE, ST=Hessen, O=privacyidea, CN=CA001
        Validity
            Not Before: Aug 11 13:49:41 2016 GMT
            Not After : Aug 11 13:49:41 2017 GMT
        Subject: OU=realm1, CN=cornelius/emailAddress=user@localhost.localdomain
        Subject Public Key Info:
            Public Key Algorithm: rsaEncryption
                Public-Key: (2048 bit)
                Modulus:
                    00:bb:11:11:98:81:09:89:d6:6e:51:f2:18:81:92:
                    ed:d4:2a:dc:60:0b:31:22:48:4a:bb:02:a2:56:fa:
                    3f:db:ec:f2:2d:87:a4:fb:83:29:5e:b0:20:06:29:
                    dd:53:15:22:91:44:09:68:37:40:18:24:50:14:5d:
                    46:82:8d:75:6f:92:86:82:e3:0c:d9:71:5b:ed:05:
                    72:48:82:b9:dc:92:bb:2d:8c:ce:dd:35:99:7e:a7:
                    b9:f7:a2:11:81:bf:c7:5f:7e:9f:2e:2d:7f:a6:8d:
                    1e:16:76:e0:e9:a1:d3:2e:46:d4:19:f2:33:8f:50:
                    51:ef:c1:7f:61:d8:9d:8f:32:f9:1d:e4:83:a7:5c:
                    1a:d9:cc:27:33:f7:46:6c:41:ee:17:48:4b:7b:3b:
                    95:d9:24:ac:52:27:fc:e8:66:8b:c1:c1:6e:cc:c0:
                    c9:a5:3c:83:7e:19:8f:ca:bd:28:85:16:05:6d:08:
                    cc:ec:c4:4c:0c:e2:df:1d:57:2a:e5:ac:5e:a3:14:
                    a8:da:37:01:15:e2:a7:50:15:1e:0b:28:4c:1a:36:
                    42:9b:ca:ea:a5:46:9b:c7:aa:f9:2c:3f:dd:c1:98:
                    cd:49:de:8f:dc:af:0e:ab:8d:be:9c:21:9c:2b:60:
                    65:63:63:f7:b0:2b:9a:03:1c:ee:28:32:d3:28:11:
                    3e:4b
                Exponent: 65537 (0x10001)
        X509v3 extensions:
            X509v3 Key Usage: 
                Digital Signature, Key Encipherment
            X509v3 Basic Constraints: 
                CA:FALSE
            Netscape Cert Type: 
                SSL Server
            Netscape Comment: 
                OpenSSL Generated Server Certificate
            X509v3 Subject Key Identifier: 
                CC:07:13:28:FE:C6:27:3B:33:6E:92:B0:8E:FE:CB:FF:CA:28:59:41
            X509v3 Authority Key Identifier: 
                keyid:F4:A7:C0:CC:91:46:AF:64:F3:91:F2:27:F8:C8:B2:6F:8A:87:32:73
                DirName:/C=DE/ST=Hessen/O=privacyidea/CN=CA001
                serial:FB:C8:EB:AC:83:CD:12:07

            X509v3 Extended Key Usage: 
                TLS Web Server Authentication
    Signature Algorithm: sha1WithRSAEncryption
         b0:e6:d2:6c:ee:f4:42:0a:f5:70:70:43:9a:86:ee:11:e4:fa:
         6d:00:92:a3:2f:46:52:d0:76:87:69:de:6a:24:c0:59:2d:11:
         cc:ea:d2:e0:03:fb:c4:e3:3f:2d:62:2f:09:81:12:df:82:a3:
         72:b6:f0:fb:1c:c3:35:0b:8a:a7:42:ab:2f:e8:96:dd:03:19:
         d9:42:77:c2:62:bf:51:fc:99:6a:87:b9:a2:c6:e1:c9:90:8a:
         e9:77:86:54:4a:11:f6:11:4f:be:47:49:fd:de:34:25:db:d7:
         bf:8f:74:9d:01:ae:e9:6d:f1:09:01:0a:b3:d0:8e:1d:f9:c7:
         ab:c1:af:53:ff:07:55:8f:bc:d1:3a:d1:a8:64:a1:c4:d3:22:
         9e:01:1e:2e:a9:29:8f:0b:c4:ea:06:30:21:12:d3:95:c7:0e:
         f1:97:e3:da:6a:2b:6b:ca:1b:78:c3:4d:7d:00:4a:88:59:91:
         fa:1c:d6:87:eb:a3:19:fc:22:a2:79:9b:71:eb:5d:06:e0:93:
         fc:9a:25:17:4c:75:0c:05:16:c3:2d:27:35:b2:1e:b5:27:47:
         f7:cc:e0:86:51:0d:9f:87:56:00:ad:60:d0:1c:76:45:e7:4f:
         2e:b9:5d:f8:bf:26:d3:89:cb:74:1a:3f:53:3e:3f:c3:68:69:
         f7:57:52:cf
-----BEGIN CERTIFICATE-----
MIIEIjCCAwqgAwIBAgIEEAAA1DANBgkqhkiG9w0BAQUFADBEMQswCQYDVQQGEwJE
RTEPMA0GA1UECAwGSGVzc2VuMRQwEgYDVQQKDAtwcml2YWN5aWRlYTEOMAwGA1UE
AwwFQ0EwMDEwHhcNMTYwODExMTM0OTQxWhcNMTcwODExMTM0OTQxWjBQMQ8wDQYD
VQQLEwZyZWFsbTExEjAQBgNVBAMTCWNvcm5lbGl1czEpMCcGCSqGSIb3DQEJARYa
dXNlckBsb2NhbGhvc3QubG9jYWxkb21haW4wggEiMA0GCSqGSIb3DQEBAQUAA4IB
DwAwggEKAoIBAQC7ERGYgQmJ1m5R8hiBku3UKtxgCzEiSEq7AqJW+j/b7PIth6T7
gylesCAGKd1TFSKRRAloN0AYJFAUXUaCjXVvkoaC4wzZcVvtBXJIgrnckrstjM7d
NZl+p7n3ohGBv8dffp8uLX+mjR4WduDpodMuRtQZ8jOPUFHvwX9h2J2PMvkd5IOn
XBrZzCcz90ZsQe4XSEt7O5XZJKxSJ/zoZovBwW7MwMmlPIN+GY/KvSiFFgVtCMzs
xEwM4t8dVyrlrF6jFKjaNwEV4qdQFR4LKEwaNkKbyuqlRpvHqvksP93BmM1J3o/c
rw6rjb6cIZwrYGVjY/ewK5oDHO4oMtMoET5LAgMBAAGjggEOMIIBCjALBgNVHQ8E
BAMCBaAwCQYDVR0TBAIwADARBglghkgBhvhCAQEEBAMCBkAwMwYJYIZIAYb4QgEN
BCYWJE9wZW5TU0wgR2VuZXJhdGVkIFNlcnZlciBDZXJ0aWZpY2F0ZTAdBgNVHQ4E
FgQUzAcTKP7GJzszbpKwjv7L/8ooWUEwdAYDVR0jBG0wa4AU9KfAzJFGr2TzkfIn
+Miyb4qHMnOhSKRGMEQxCzAJBgNVBAYTAkRFMQ8wDQYDVQQIDAZIZXNzZW4xFDAS
BgNVBAoMC3ByaXZhY3lpZGVhMQ4wDAYDVQQDDAVDQTAwMYIJAPvI66yDzRIHMBMG
A1UdJQQMMAoGCCsGAQUFBwMBMA0GCSqGSIb3DQEBBQUAA4IBAQCw5tJs7vRCCvVw
cEOahu4R5PptAJKjL0ZS0HaHad5qJMBZLRHM6tLgA/vE4z8tYi8JgRLfgqNytvD7
HMM1C4qnQqsv6JbdAxnZQnfCYr9R/Jlqh7mixuHJkIrpd4ZUShH2EU++R0n93jQl
29e/j3SdAa7pbfEJAQqz0I4d+cerwa9T/wdVj7zROtGoZKHE0yKeAR4uqSmPC8Tq
BjAhEtOVxw7xl+Paaitryht4w019AEqIWZH6HNaH66MZ/CKieZtx610G4JP8miUX
THUMBRbDLSc1sh61J0f3zOCGUQ2fh1YArWDQHHZF508uuV34vybTict0Gj9TPj/D
aGn3V1LP
-----END CERTIFICATE-----
