Certificate:
    Data:
        Version: 3 (0x2)
        Serial Number: 268435695 (0x100000ef)
    Signature Algorithm: sha1WithRSAEncryption
        Issuer: C=DE, ST=Hessen, O=privacyidea, CN=CA001
        Validity
            Not Before: Apr 26 12:46:02 2016 GMT
            Not After : Apr 26 12:46:02 2017 GMT
        Subject: OU=realm1, CN=cornelius/emailAddress=user@localhost.localdomain
        Subject Public Key Info:
            Public Key Algorithm: rsaEncryption
                Public-Key: (2048 bit)
                Modulus:
                    00:a1:9f:d6:22:2c:e8:0f:3d:99:ab:c3:cf:de:7f:
                    b8:68:1e:2c:f8:49:f9:3f:84:0f:26:64:de:7a:30:
                    b5:35:89:e4:0a:7f:b5:ac:55:8a:13:25:32:81:45:
                    4f:53:d4:d1:f2:5c:e4:2d:ad:02:8e:fa:e0:16:42:
                    a7:66:d1:95:ac:87:0b:3c:4a:e3:09:f8:9d:25:50:
                    95:59:4c:79:6e:6d:e7:22:9a:2d:47:e3:ea:3f:4f:
                    40:de:3d:32:8f:37:f8:87:58:98:74:b2:f0:d6:26:
                    75:26:b7:d1:01:25:c8:90:1a:3e:01:9f:0f:55:27:
                    73:70:39:82:9d:da:49:39:c5:7b:99:d8:d1:c4:9b:
                    73:2d:ef:9f:e2:70:45:68:7e:ed:1e:57:d7:8b:8b:
                    e9:f6:7b:4d:d1:aa:40:44:4d:e5:b5:77:60:f1:9a:
                    79:9f:22:a6:d2:f0:57:1b:9a:47:4e:2d:73:92:24:
                    3e:94:79:f9:ac:fc:d2:1f:a1:a9:6e:2e:0e:13:42:
                    e6:23:54:e7:4f:46:59:7e:c5:bd:09:e7:65:2a:9d:
                    22:a4:4b:bc:6d:9c:9d:b5:e2:7d:43:85:fb:65:9f:
                    6a:74:e7:f2:4d:38:2a:c0:82:f2:da:de:84:e0:20:
                    92:73:7e:60:7a:c3:85:03:8f:18:ef:7f:a4:2b:5d:
                    2f:07
                Exponent: 65537 (0x10001)
        X509v3 extensions:
            X509v3 Key Usage: 
                Digital Signature, Key Encipherment
            X509v3 Basic Constraints: 
                CA:FALSE
            Netscape Cert Type: 
                SSL Server
            Netscape Comment: 
                OpenSSL Generated Server Certificate
            X509v3 Subject Key Identifier: 
                89:0A:45:FF:14:7D:4B:1F:B2:D2:FA:EE:F9:25:AC:5A:70:7C:E0:8C
            X509v3 Authority Key Identifier: 
                keyid:F4:A7:C0:CC:91:46:AF:64:F3:91:F2:27:F8:C8:B2:6F:8A:87:32:73
                DirName:/C=DE/ST=Hessen/O=privacyidea/CN=CA001
                serial:FB:C8:EB:AC:83:CD:12:07

            X509v3 Extended Key Usage: 
                TLS Web Server Authentication
    Signature Algorithm: sha1WithRSAEncryption
         3f:e2:b2:a2:2f:58:70:e2:99:24:c4:44:a8:3e:ca:29:0a:49:
         b5:d3:df:c5:1c:b2:45:ca:da:e5:58:e5:5c:e2:ff:79:c2:65:
         e9:1a:8f:2d:ac:c2:ec:d8:b5:51:48:94:cf:b5:d2:c1:b8:d2:
         62:8e:b9:c4:9b:c2:e8:a8:4d:0c:7a:35:1c:14:63:b0:ee:37:
         e9:fa:13:d3:cc:35:1b:90:54:8b:a3:00:68:e6:cf:70:ce:9b:
         59:49:89:34:c0:a1:10:12:83:49:b8:c3:d6:b0:08:f1:8e:7e:
         bf:0c:4a:a2:12:f8:3c:5b:64:51:aa:19:d8:01:78:79:4a:2e:
         de:94:67:f2:f3:8b:1f:35:1d:db:15:2a:36:4d:49:18:d5:c4:
         df:d3:b9:d7:3b:10:78:f2:e3:d0:b0:fb:d7:77:94:f2:12:df:
         c0:a4:30:70:a6:66:d1:ca:d6:2b:c7:6c:58:90:bc:97:37:21:
         32:ef:4c:27:d2:72:48:7c:1b:5c:2c:8d:d0:15:20:7e:db:35:
         bf:43:77:23:8d:dd:c2:0a:73:20:38:9c:e7:a5:04:db:e3:16:
         6a:3b:96:4f:0e:ec:1f:ba:5d:86:2d:97:e1:d3:8f:a1:cb:fb:
         5b:26:41:a9:44:d4:d4:cd:f4:4d:b0:9a:fd:66:b0:32:77:51:
         66:ad:92:65
-----BEGIN CERTIFICATE-----
MIIEIjCCAwqgAwIBAgIEEAAA7zANBgkqhkiG9w0BAQUFADBEMQswCQYDVQQGEwJE
RTEPMA0GA1UECAwGSGVzc2VuMRQwEgYDVQQKDAtwcml2YWN5aWRlYTEOMAwGA1UE
AwwFQ0EwMDEwHhcNMTYwNDI2MTI0NjAyWhcNMTcwNDI2MTI0NjAyWjBQMQ8wDQYD
VQQLEwZyZWFsbTExEjAQBgNVBAMTCWNvcm5lbGl1czEpMCcGCSqGSIb3DQEJARYa
dXNlckBsb2NhbGhvc3QubG9jYWxkb21haW4wggEiMA0GCSqGSIb3DQEBAQUAA4IB
DwAwggEKAoIBAQChn9YiLOgPPZmrw8/ef7hoHiz4Sfk/hA8mZN56MLU1ieQKf7Ws
VYoTJTKBRU9T1NHyXOQtrQKO+uAWQqdm0ZWshws8SuMJ+J0lUJVZTHlubecimi1H
4+o/T0DePTKPN/iHWJh0svDWJnUmt9EBJciQGj4Bnw9VJ3NwOYKd2kk5xXuZ2NHE
m3Mt75/icEVofu0eV9eLi+n2e03RqkBETeW1d2DxmnmfIqbS8FcbmkdOLXOSJD6U
efms/NIfoaluLg4TQuYjVOdPRll+xb0J52UqnSKkS7xtnJ214n1Dhftln2p05/JN
OCrAgvLa3oTgIJJzfmB6w4UDjxjvf6QrXS8HAgMBAAGjggEOMIIBCjALBgNVHQ8E
BAMCBaAwCQYDVR0TBAIwADARBglghkgBhvhCAQEEBAMCBkAwMwYJYIZIAYb4QgEN
BCYWJE9wZW5TU0wgR2VuZXJhdGVkIFNlcnZlciBDZXJ0aWZpY2F0ZTAdBgNVHQ4E
FgQUiQpF/xR9Sx+y0vru+SWsWnB84IwwdAYDVR0jBG0wa4AU9KfAzJFGr2TzkfIn
+Miyb4qHMnOhSKRGMEQxCzAJBgNVBAYTAkRFMQ8wDQYDVQQIDAZIZXNzZW4xFDAS
BgNVBAoMC3ByaXZhY3lpZGVhMQ4wDAYDVQQDDAVDQTAwMYIJAPvI66yDzRIHMBMG
A1UdJQQMMAoGCCsGAQUFBwMBMA0GCSqGSIb3DQEBBQUAA4IBAQA/4rKiL1hw4pkk
xESoPsopCkm109/FHLJFytrlWOVc4v95wmXpGo8trMLs2LVRSJTPtdLBuNJijrnE
m8LoqE0MejUcFGOw7jfp+hPTzDUbkFSLowBo5s9wzptZSYk0wKEQEoNJuMPWsAjx
jn6/DEqiEvg8W2RRqhnYAXh5Si7elGfy84sfNR3bFSo2TUkY1cTf07nXOxB48uPQ
sPvXd5TyEt/ApDBwpmbRytYrx2xYkLyXNyEy70wn0nJIfBtcLI3QFSB+2zW/Q3cj
jd3CCnMgOJznpQTb4xZqO5ZPDuwful2GLZfh04+hy/tbJkGpRNTUzfRNsJr9ZrAy
d1FmrZJl
-----END CERTIFICATE-----
