Certificate:
    Data:
        Version: 3 (0x2)
        Serial Number: 268435670 (0x100000d6)
    Signature Algorithm: sha1WithRSAEncryption
        Issuer: C=DE, ST=Hessen, O=privacyidea, CN=CA001
        Validity
            Not Before: May 29 22:23:47 2016 GMT
            Not After : May 29 22:23:47 2017 GMT
        Subject: CN=selfservice,CN=user,O=realm1/emailAddress=meine
        Subject Public Key Info:
            Public Key Algorithm: rsaEncryption
                Public-Key: (2048 bit)
                Modulus:
                    00:cf:3c:d4:33:0e:12:c4:e6:da:cd:b6:56:a1:1c:
                    26:bb:26:1c:8a:4a:73:a8:58:8a:b6:1e:b3:8b:99:
                    d2:1d:07:c2:92:89:79:c0:69:d8:c8:df:28:61:98:
                    1e:b3:fe:ae:2b:bd:78:a9:f7:6e:47:dc:a3:a0:16:
                    8c:85:02:c1:4e:92:fd:72:6e:f0:c8:03:29:9b:b8:
                    00:6e:c0:83:95:c8:34:20:36:9c:b3:e5:e4:e6:76:
                    73:a3:1a:ad:40:96:e0:53:54:00:ec:76:79:9a:c6:
                    0d:7e:b6:bd:29:ec:83:f3:cb:89:a4:cb:6c:00:ba:
                    0c:c5:78:0f:ff:69:b8:94:f4:04:70:43:3f:d8:9e:
                    d7:a7:fb:5d:ce:75:8e:da:e7:c4:07:b1:9d:de:6f:
                    88:4b:b6:4d:9a:cf:f9:bc:fa:9f:cd:32:6d:f6:3a:
                    0b:0d:23:42:78:ec:97:42:bf:0e:4d:60:56:e1:d3:
                    02:f2:19:cb:84:57:90:e5:70:a1:a2:83:35:86:e2:
                    da:86:9f:f9:8a:c4:79:b3:52:28:da:cb:bb:34:ca:
                    d3:da:91:4a:cf:8d:76:a2:b2:6b:9b:f9:96:fd:09:
                    2a:da:11:23:4d:f0:cb:d6:b2:b1:0e:12:6c:9a:19:
                    65:98:87:ca:e4:ee:24:ce:44:ac:90:8f:9d:1b:c5:
                    2a:9d
                Exponent: 65537 (0x10001)
        X509v3 extensions:
            X509v3 Key Usage: 
                Digital Signature, Key Encipherment
            X509v3 Basic Constraints: 
                CA:FALSE
            Netscape Cert Type: 
                SSL Server
            Netscape Comment: 
                OpenSSL Generated Server Certificate
            X509v3 Subject Key Identifier: 
                4D:07:90:AD:FF:1D:0D:E7:1A:DD:D6:2E:FA:BA:34:CB:AA:1F:24:C6
            X509v3 Authority Key Identifier: 
                keyid:F4:A7:C0:CC:91:46:AF:64:F3:91:F2:27:F8:C8:B2:6F:8A:87:32:73
                DirName:/C=DE/ST=Hessen/O=privacyidea/CN=CA001
                serial:FB:C8:EB:AC:83:CD:12:07

            X509v3 Extended Key Usage: 
                TLS Web Server Authentication
    Signature Algorithm: sha1WithRSAEncryption
         9c:3c:dd:b6:b2:c5:fb:e6:ac:75:cd:8c:73:1a:b4:87:a3:b4:
         aa:db:14:33:4d:27:ec:b9:01:c9:05:a0:c4:5c:e2:c1:b2:c5:
         80:34:ef:9e:ad:d8:e7:c5:17:be:0e:ea:5c:64:2d:70:68:ce:
         e7:27:0c:d1:6d:76:ce:ea:87:1a:7d:c0:5e:ab:c0:a9:54:fd:
         07:7f:fa:a2:53:ef:13:1e:51:2b:ad:fb:d5:a0:28:ae:50:89:
         5b:4f:73:9b:e1:28:76:35:98:41:4c:79:f1:f5:e0:44:9d:6c:
         7a:19:e7:11:aa:ef:02:1c:e6:cb:9e:18:57:a0:b4:3b:f4:a8:
         b7:f4:50:80:c4:ec:a8:8e:7a:dd:ac:65:8c:02:36:94:55:5c:
         3e:3b:13:03:7b:e2:7e:c8:83:b5:9f:46:4e:48:6e:53:20:c8:
         9a:00:c7:64:69:4d:ca:bf:e3:da:e5:9e:e8:91:fb:69:fa:1a:
         51:5c:89:58:3b:68:9b:89:a3:0a:83:3c:44:59:1b:56:e3:e1:
         6b:d1:ec:8a:83:3c:09:5f:c1:5f:bc:e8:a8:de:ba:38:78:79:
         8e:ef:51:a1:8d:f0:ba:1c:b8:9c:30:ed:8a:2b:c5:4c:d9:23:
         5c:86:53:0c:cc:03:d2:1c:2d:40:e1:ce:74:d0:0b:48:a0:ed:
         90:a1:cd:b0
-----BEGIN CERTIFICATE-----
MIIEDzCCAvegAwIBAgIEEAAA1jANBgkqhkiG9w0BAQUFADBEMQswCQYDVQQGEwJE
RTEPMA0GA1UECAwGSGVzc2VuMRQwEgYDVQQKDAtwcml2YWN5aWRlYTEOMAwGA1UE
AwwFQ0EwMDEwHhcNMTYwNTI5MjIyMzQ3WhcNMTcwNTI5MjIyMzQ3WjA9MSUwIwYD
VQQDExxzZWxmc2VydmljZSxDTj11c2VyLE89cmVhbG0xMRQwEgYJKoZIhvcNAQkB
FgVtZWluZTCCASIwDQYJKoZIhvcNAQEBBQADggEPADCCAQoCggEBAM881DMOEsTm
2s22VqEcJrsmHIpKc6hYirYes4uZ0h0HwpKJecBp2MjfKGGYHrP+riu9eKn3bkfc
o6AWjIUCwU6S/XJu8MgDKZu4AG7Ag5XINCA2nLPl5OZ2c6MarUCW4FNUAOx2eZrG
DX62vSnsg/PLiaTLbAC6DMV4D/9puJT0BHBDP9ie16f7Xc51jtrnxAexnd5viEu2
TZrP+bz6n80ybfY6Cw0jQnjsl0K/Dk1gVuHTAvIZy4RXkOVwoaKDNYbi2oaf+YrE
ebNSKNrLuzTK09qRSs+NdqKya5v5lv0JKtoRI03wy9aysQ4SbJoZZZiHyuTuJM5E
rJCPnRvFKp0CAwEAAaOCAQ4wggEKMAsGA1UdDwQEAwIFoDAJBgNVHRMEAjAAMBEG
CWCGSAGG+EIBAQQEAwIGQDAzBglghkgBhvhCAQ0EJhYkT3BlblNTTCBHZW5lcmF0
ZWQgU2VydmVyIENlcnRpZmljYXRlMB0GA1UdDgQWBBRNB5Ct/x0N5xrd1i76ujTL
qh8kxjB0BgNVHSMEbTBrgBT0p8DMkUavZPOR8if4yLJviocyc6FIpEYwRDELMAkG
A1UEBhMCREUxDzANBgNVBAgMBkhlc3NlbjEUMBIGA1UECgwLcHJpdmFjeWlkZWEx
DjAMBgNVBAMMBUNBMDAxggkA+8jrrIPNEgcwEwYDVR0lBAwwCgYIKwYBBQUHAwEw
DQYJKoZIhvcNAQEFBQADggEBAJw83bayxfvmrHXNjHMatIejtKrbFDNNJ+y5AckF
oMRc4sGyxYA0756t2OfFF74O6lxkLXBozucnDNFtds7qhxp9wF6rwKlU/Qd/+qJT
7xMeUSut+9WgKK5QiVtPc5vhKHY1mEFMefH14ESdbHoZ5xGq7wIc5sueGFegtDv0
qLf0UIDE7KiOet2sZYwCNpRVXD47EwN74n7Ig7WfRk5IblMgyJoAx2RpTcq/49rl
nuiR+2n6GlFciVg7aJuJowqDPERZG1bj4WvR7IqDPAlfwV+86Kjeujh4eY7vUaGN
8LocuJww7YorxUzZI1yGUwzMA9IcLUDhznTQC0ig7ZChzbA=
-----END CERTIFICATE-----
