Certificate:
    Data:
        Version: 3 (0x2)
        Serial Number: 268435671 (0x100000d7)
    Signature Algorithm: sha1WithRSAEncryption
        Issuer: C=DE, ST=Hessen, O=privacyidea, CN=CA001
        Validity
            Not Before: May 29 11:26:42 2016 GMT
            Not After : May 29 11:26:42 2017 GMT
        Subject: C=DE, ST=Hessen, O=privacyidea, CN=requester.localdomain
        Subject Public Key Info:
            Public Key Algorithm: rsaEncryption
                Public-Key: (2048 bit)
                Modulus:
                    00:cd:be:14:4f:fa:ce:01:3f:42:22:1b:1d:9c:af:
                    dd:92:d2:7f:db:6c:b7:3e:39:43:43:6b:13:03:f1:
                    05:f4:07:74:bc:76:69:28:0b:af:19:8e:d7:fc:e3:
                    cd:c6:58:f2:ca:7f:08:6d:53:fc:07:02:44:24:c6:
                    b4:34:4c:8c:04:fe:33:0e:40:e2:20:ba:02:73:5a:
                    f7:f5:4f:63:6e:cc:c6:b6:df:54:1d:37:39:7d:51:
                    36:26:5f:bd:dc:3f:a8:8b:6b:a2:ae:b6:9d:d6:21:
                    e7:df:41:b8:7a:28:2a:68:48:ca:a8:2d:ed:e1:e9:
                    46:5e:5a:72:6d:b4:84:38:87:91:fd:94:11:0b:28:
                    84:c6:c2:2f:2a:fb:01:f9:36:7a:09:75:d1:33:88:
                    3c:73:41:5b:c8:bf:94:89:70:a1:f0:c0:b9:2e:50:
                    53:1e:b1:17:64:69:f4:2d:81:e0:a9:0d:0e:32:e9:
                    ba:55:8a:85:f1:1b:6f:49:79:b4:7f:88:c3:0d:3e:
                    54:88:9b:3d:1f:38:8c:04:f3:ee:6a:63:2b:f5:c6:
                    db:b4:83:aa:c4:78:41:3a:7d:4b:e1:c8:3e:71:ca:
                    1b:61:59:ea:c6:c4:ca:32:5e:c9:e9:bf:12:29:e6:
                    c6:c3:63:fe:a0:55:da:7a:f1:60:98:4d:26:ed:fa:
                    70:2d
                Exponent: 65537 (0x10001)
        X509v3 extensions:
            X509v3 Key Usage: 
                Digital Signature, Key Encipherment
            X509v3 Basic Constraints: 
                CA:FALSE
            Netscape Cert Type: 
                SSL Server
            Netscape Comment: 
                OpenSSL Generated Server Certificate
            X509v3 Subject Key Identifier: 
                53:3F:ED:5D:09:07:B3:65:7B:AB:45:C9:24:5B:09:77:80:0A:96:ED
            X509v3 Authority Key Identifier: 
                keyid:F4:A7:C0:CC:91:46:AF:64:F3:91:F2:27:F8:C8:B2:6F:8A:87:32:73
                DirName:/C=DE/ST=Hessen/O=privacyidea/CN=CA001
                serial:FB:C8:EB:AC:83:CD:12:07

            X509v3 Extended Key Usage: 
                TLS Web Server Authentication
    Signature Algorithm: sha1WithRSAEncryption
         ab:16:51:d9:4d:52:b8:5a:a9:de:e4:75:91:fd:81:07:14:8a:
         06:47:b6:81:c2:1c:47:ce:c2:48:32:c3:1f:28:c0:13:e6:de:
         92:5e:08:02:5a:13:a5:e4:02:59:f2:e3:71:99:a4:f7:e4:64:
         c0:69:65:5f:d8:a6:48:88:40:fe:56:f5:16:e1:2c:a4:a6:a5:
         7d:83:4f:15:b4:2b:a7:0e:ae:e3:75:12:f6:58:58:5c:75:22:
         e4:ba:eb:6f:e3:68:74:a4:cf:cf:aa:f3:c4:bf:b2:3c:d7:7b:
         77:8d:89:d7:3f:24:3c:fa:bc:cc:31:37:2d:f7:99:67:42:26:
         fe:0f:65:51:c1:e7:95:58:14:94:51:3e:db:64:bb:cb:89:a6:
         0d:28:cd:94:55:0e:03:63:d5:36:29:75:a9:7b:8a:54:b5:46:
         a5:1b:ae:dd:e2:ab:4b:20:e6:3f:62:97:01:93:e9:51:91:20:
         37:21:83:8b:7c:db:4b:b4:c2:ac:50:62:e7:d8:9a:4d:ce:b8:
         fa:89:cc:31:4f:a8:d7:32:e7:b8:7d:d9:4e:6f:ce:ee:98:18:
         35:d2:45:01:75:36:cb:98:7c:eb:a8:2b:0d:cb:73:cd:da:16:
         1e:c4:2d:18:e7:01:cd:83:11:5c:23:44:e2:e0:97:98:4b:df:
         87:63:2c:54
-----BEGIN CERTIFICATE-----
MIIEJjCCAw6gAwIBAgIEEAAA1zANBgkqhkiG9w0BAQUFADBEMQswCQYDVQQGEwJE
RTEPMA0GA1UECAwGSGVzc2VuMRQwEgYDVQQKDAtwcml2YWN5aWRlYTEOMAwGA1UE
AwwFQ0EwMDEwHhcNMTYwNTI5MTEyNjQyWhcNMTcwNTI5MTEyNjQyWjBUMQswCQYD
VQQGEwJERTEPMA0GA1UECAwGSGVzc2VuMRQwEgYDVQQKDAtwcml2YWN5aWRlYTEe
MBwGA1UEAwwVcmVxdWVzdGVyLmxvY2FsZG9tYWluMIIBIjANBgkqhkiG9w0BAQEF
AAOCAQ8AMIIBCgKCAQEAzb4UT/rOAT9CIhsdnK/dktJ/22y3PjlDQ2sTA/EF9Ad0
vHZpKAuvGY7X/OPNxljyyn8IbVP8BwJEJMa0NEyMBP4zDkDiILoCc1r39U9jbszG
tt9UHTc5fVE2Jl+93D+oi2uirrad1iHn30G4eigqaEjKqC3t4elGXlpybbSEOIeR
/ZQRCyiExsIvKvsB+TZ6CXXRM4g8c0FbyL+UiXCh8MC5LlBTHrEXZGn0LYHgqQ0O
Mum6VYqF8RtvSXm0f4jDDT5UiJs9HziMBPPuamMr9cbbtIOqxHhBOn1L4cg+ccob
YVnqxsTKMl7J6b8SKebGw2P+oFXaevFgmE0m7fpwLQIDAQABo4IBDjCCAQowCwYD
VR0PBAQDAgWgMAkGA1UdEwQCMAAwEQYJYIZIAYb4QgEBBAQDAgZAMDMGCWCGSAGG
+EIBDQQmFiRPcGVuU1NMIEdlbmVyYXRlZCBTZXJ2ZXIgQ2VydGlmaWNhdGUwHQYD
VR0OBBYEFFM/7V0JB7Nle6tFySRbCXeACpbtMHQGA1UdIwRtMGuAFPSnwMyRRq9k
85HyJ/jIsm+KhzJzoUikRjBEMQswCQYDVQQGEwJERTEPMA0GA1UECAwGSGVzc2Vu
MRQwEgYDVQQKDAtwcml2YWN5aWRlYTEOMAwGA1UEAwwFQ0EwMDGCCQD7yOusg80S
BzATBgNVHSUEDDAKBggrBgEFBQcDATANBgkqhkiG9w0BAQUFAAOCAQEAqxZR2U1S
uFqp3uR1kf2BBxSKBke2gcIcR87CSDLDHyjAE+bekl4IAloTpeQCWfLjcZmk9+Rk
wGllX9imSIhA/lb1FuEspKalfYNPFbQrpw6u43US9lhYXHUi5Lrrb+NodKTPz6rz
xL+yPNd7d42J1z8kPPq8zDE3LfeZZ0Im/g9lUcHnlVgUlFE+22S7y4mmDSjNlFUO
A2PVNil1qXuKVLVGpRuu3eKrSyDmP2KXAZPpUZEgNyGDi3zbS7TCrFBi59iaTc64
+onMMU+o1zLnuH3ZTm/O7pgYNdJFAXU2y5h866grDctzzdoWHsQtGOcBzYMRXCNE
4uCXmEvfh2MsVA==
-----END CERTIFICATE-----
