Certificate:
    Data:
        Version: 3 (0x2)
        Serial Number: 268435702 (0x100000f6)
    Signature Algorithm: sha1WithRSAEncryption
        Issuer: C=DE, ST=Hessen, O=privacyidea, CN=CA001
        Validity
            Not Before: Apr 26 13:10:05 2016 GMT
            Not After : Apr 26 13:10:05 2017 GMT
        Subject: C=DE, ST=Hessen, O=privacyidea, CN=requester.localdomain
        Subject Public Key Info:
            Public Key Algorithm: rsaEncryption
                Public-Key: (2048 bit)
                Modulus:
                    00:cd:be:14:4f:fa:ce:01:3f:42:22:1b:1d:9c:af:
                    dd:92:d2:7f:db:6c:b7:3e:39:43:43:6b:13:03:f1:
                    05:f4:07:74:bc:76:69:28:0b:af:19:8e:d7:fc:e3:
                    cd:c6:58:f2:ca:7f:08:6d:53:fc:07:02:44:24:c6:
                    b4:34:4c:8c:04:fe:33:0e:40:e2:20:ba:02:73:5a:
                    f7:f5:4f:63:6e:cc:c6:b6:df:54:1d:37:39:7d:51:
                    36:26:5f:bd:dc:3f:a8:8b:6b:a2:ae:b6:9d:d6:21:
                    e7:df:41:b8:7a:28:2a:68:48:ca:a8:2d:ed:e1:e9:
                    46:5e:5a:72:6d:b4:84:38:87:91:fd:94:11:0b:28:
                    84:c6:c2:2f:2a:fb:01:f9:36:7a:09:75:d1:33:88:
                    3c:73:41:5b:c8:bf:94:89:70:a1:f0:c0:b9:2e:50:
                    53:1e:b1:17:64:69:f4:2d:81:e0:a9:0d:0e:32:e9:
                    ba:55:8a:85:f1:1b:6f:49:79:b4:7f:88:c3:0d:3e:
                    54:88:9b:3d:1f:38:8c:04:f3:ee:6a:63:2b:f5:c6:
                    db:b4:83:aa:c4:78:41:3a:7d:4b:e1:c8:3e:71:ca:
                    1b:61:59:ea:c6:c4:ca:32:5e:c9:e9:bf:12:29:e6:
                    c6:c3:63:fe:a0:55:da:7a:f1:60:98:4d:26:ed:fa:
                    70:2d
                Exponent: 65537 (0x10001)
        X509v3 extensions:
            X509v3 Key Usage: 
                Digital Signature, Key Encipherment
            X509v3 Basic Constraints: 
                CA:FALSE
            Netscape Cert Type: 
                SSL Server
            Netscape Comment: 
                OpenSSL Generated Server Certificate
            X509v3 Subject Key Identifier: 
                53:3F:ED:5D:09:07:B3:65:7B:AB:45:C9:24:5B:09:77:80:0A:96:ED
            X509v3 Authority Key Identifier: 
                keyid:F4:A7:C0:CC:91:46:AF:64:F3:91:F2:27:F8:C8:B2:6F:8A:87:32:73
                DirName:/C=DE/ST=Hessen/O=privacyidea/CN=CA001
                serial:FB:C8:EB:AC:83:CD:12:07

            X509v3 Extended Key Usage: 
                TLS Web Server Authentication
    Signature Algorithm: sha1WithRSAEncryption
         8c:f0:5a:35:a2:fe:3e:4c:56:33:33:c0:5f:5c:01:36:b2:6b:
         36:e3:d9:f5:13:fe:48:73:f8:52:84:99:dd:f8:01:9c:0d:bc:
         0a:99:31:fe:10:47:23:b5:50:4a:85:0f:ff:7e:e6:bd:be:c0:
         13:42:9d:c3:87:a2:d8:cd:01:fe:1a:bb:e0:9c:26:66:53:42:
         f4:a2:98:03:95:f4:83:ce:88:58:1f:c3:a8:81:75:9d:ee:9d:
         e6:89:a9:a5:4e:62:06:33:5c:0f:a2:5f:ba:1a:96:7f:ea:db:
         d2:26:26:ac:02:25:58:cc:c7:ea:cb:d3:be:e5:01:2b:b4:de:
         61:9c:ea:e2:11:6e:07:43:2e:f8:bc:72:7b:97:eb:ab:6f:81:
         23:c0:63:7d:d2:e1:e1:b4:89:5c:a6:2d:b6:44:bf:38:d7:32:
         e3:32:3b:e6:fc:89:c8:10:88:23:f7:98:2d:07:73:c0:83:b6:
         b7:5b:b4:05:3a:dc:b1:77:47:e8:98:ba:03:f8:6a:81:49:6e:
         72:fd:05:25:88:ec:d3:e9:d4:f4:6a:e9:d3:ca:e8:e5:c3:09:
         87:a0:a8:70:93:bc:4c:75:39:20:93:17:57:f5:2c:f9:04:ba:
         49:f3:99:40:1d:dd:c6:da:95:93:b0:30:4f:ce:6a:7a:ff:30:
         93:27:e8:8d
-----BEGIN CERTIFICATE-----
MIIEJjCCAw6gAwIBAgIEEAAA9jANBgkqhkiG9w0BAQUFADBEMQswCQYDVQQGEwJE
RTEPMA0GA1UECAwGSGVzc2VuMRQwEgYDVQQKDAtwcml2YWN5aWRlYTEOMAwGA1UE
AwwFQ0EwMDEwHhcNMTYwNDI2MTMxMDA1WhcNMTcwNDI2MTMxMDA1WjBUMQswCQYD
VQQGEwJERTEPMA0GA1UECAwGSGVzc2VuMRQwEgYDVQQKDAtwcml2YWN5aWRlYTEe
MBwGA1UEAwwVcmVxdWVzdGVyLmxvY2FsZG9tYWluMIIBIjANBgkqhkiG9w0BAQEF
AAOCAQ8AMIIBCgKCAQEAzb4UT/rOAT9CIhsdnK/dktJ/22y3PjlDQ2sTA/EF9Ad0
vHZpKAuvGY7X/OPNxljyyn8IbVP8BwJEJMa0NEyMBP4zDkDiILoCc1r39U9jbszG
tt9UHTc5fVE2Jl+93D+oi2uirrad1iHn30G4eigqaEjKqC3t4elGXlpybbSEOIeR
/ZQRCyiExsIvKvsB+TZ6CXXRM4g8c0FbyL+UiXCh8MC5LlBTHrEXZGn0LYHgqQ0O
Mum6VYqF8RtvSXm0f4jDDT5UiJs9HziMBPPuamMr9cbbtIOqxHhBOn1L4cg+ccob
YVnqxsTKMl7J6b8SKebGw2P+oFXaevFgmE0m7fpwLQIDAQABo4IBDjCCAQowCwYD
VR0PBAQDAgWgMAkGA1UdEwQCMAAwEQYJYIZIAYb4QgEBBAQDAgZAMDMGCWCGSAGG
+EIBDQQmFiRPcGVuU1NMIEdlbmVyYXRlZCBTZXJ2ZXIgQ2VydGlmaWNhdGUwHQYD
VR0OBBYEFFM/7V0JB7Nle6tFySRbCXeACpbtMHQGA1UdIwRtMGuAFPSnwMyRRq9k
85HyJ/jIsm+KhzJzoUikRjBEMQswCQYDVQQGEwJERTEPMA0GA1UECAwGSGVzc2Vu
MRQwEgYDVQQKDAtwcml2YWN5aWRlYTEOMAwGA1UEAwwFQ0EwMDGCCQD7yOusg80S
BzATBgNVHSUEDDAKBggrBgEFBQcDATANBgkqhkiG9w0BAQUFAAOCAQEAjPBaNaL+
PkxWMzPAX1wBNrJrNuPZ9RP+SHP4UoSZ3fgBnA28Cpkx/hBHI7VQSoUP/37mvb7A
E0Kdw4ei2M0B/hq74JwmZlNC9KKYA5X0g86IWB/DqIF1ne6d5omppU5iBjNcD6Jf
uhqWf+rb0iYmrAIlWMzH6svTvuUBK7TeYZzq4hFuB0Mu+Lxye5frq2+BI8BjfdLh
4bSJXKYttkS/ONcy4zI75vyJyBCII/eYLQdzwIO2t1u0BTrcsXdH6Ji6A/hqgUlu
cv0FJYjs0+nU9Grp08ro5cMJh6CocJO8THU5IJMXV/Us+QS6SfOZQB3dxtqVk7Aw
T85qev8wkyfojQ==
-----END CERTIFICATE-----
