Certificate:
    Data:
        Version: 3 (0x2)
        Serial Number: 268435705 (0x100000f9)
    Signature Algorithm: sha1WithRSAEncryption
        Issuer: C=DE, ST=Hessen, O=privacyidea, CN=CA001
        Validity
            Not Before: Apr 26 13:12:46 2016 GMT
            Not After : Apr 26 13:12:46 2017 GMT
        Subject: OU=realm1, CN=cornelius/emailAddress=user@localhost.localdomain
        Subject Public Key Info:
            Public Key Algorithm: rsaEncryption
                Public-Key: (2048 bit)
                Modulus:
                    00:b8:a0:7e:a9:c0:69:ee:61:8f:1b:40:26:f4:5f:
                    fd:33:c7:c2:a3:73:56:cf:0c:b6:5f:dd:81:90:92:
                    69:c4:76:15:96:3c:ca:e2:b6:08:97:35:11:cc:62:
                    8e:0f:e2:61:8f:89:e6:dc:94:89:f8:d9:da:99:46:
                    26:a2:2c:b3:1f:fd:9d:e1:53:e4:ea:d6:cb:04:f2:
                    39:c4:cc:a1:22:f1:72:29:d8:22:b2:4d:94:20:c9:
                    08:2e:91:c7:b0:a3:ed:13:c1:37:79:eb:ba:02:49:
                    83:7f:f6:eb:36:53:2a:4e:f6:73:79:e6:a5:bd:b9:
                    08:9a:2d:e6:0f:5a:3f:82:7d:73:7e:f6:41:2c:9a:
                    5e:f8:a9:5b:a1:09:cd:f0:35:d0:17:a7:3e:76:52:
                    56:6a:5e:aa:8e:24:7c:c3:a2:aa:89:bb:7b:ed:3a:
                    a8:ec:af:cc:f6:c6:de:a3:b3:8d:53:bd:ca:10:9b:
                    34:cd:b9:e2:7c:79:8a:4c:28:7c:86:08:ba:3e:81:
                    99:a8:6e:d5:eb:1f:50:55:d5:c1:97:96:85:36:14:
                    ca:e6:69:86:4e:d0:2e:ff:ca:a2:a6:ce:31:92:04:
                    de:7d:32:da:3d:10:1e:f6:fc:f7:8d:82:14:f8:58:
                    89:85:0c:50:dc:eb:d9:5b:ed:b4:0f:2c:fa:c6:1e:
                    79:91
                Exponent: 65537 (0x10001)
        X509v3 extensions:
            X509v3 Key Usage: 
                Digital Signature, Key Encipherment
            X509v3 Basic Constraints: 
                CA:FALSE
            Netscape Cert Type: 
                SSL Server
            Netscape Comment: 
                OpenSSL Generated Server Certificate
            X509v3 Subject Key Identifier: 
                F5:C9:3D:99:46:73:AD:F9:84:DF:7F:FF:71:DF:B7:1C:7F:41:8C:E8
            X509v3 Authority Key Identifier: 
                keyid:F4:A7:C0:CC:91:46:AF:64:F3:91:F2:27:F8:C8:B2:6F:8A:87:32:73
                DirName:/C=DE/ST=Hessen/O=privacyidea/CN=CA001
                serial:FB:C8:EB:AC:83:CD:12:07

            X509v3 Extended Key Usage: 
                TLS Web Server Authentication
    Signature Algorithm: sha1WithRSAEncryption
         bd:a5:dc:76:97:fa:25:89:b8:cb:b7:32:2d:39:ea:1f:b4:f6:
         ba:27:b3:5c:67:7c:08:0c:d1:4c:6b:f8:1d:46:89:70:ca:32:
         3c:05:e5:bd:91:21:fb:10:7c:ec:a5:06:73:f8:1a:e1:13:78:
         e3:9d:7f:39:97:1f:50:a8:7e:bd:d0:61:48:a6:57:65:a7:1c:
         4b:46:0b:2f:ab:ac:7f:ea:67:da:6e:2d:d3:34:b9:24:5a:72:
         7a:ea:5d:98:32:9b:80:2f:a1:79:fa:2d:1d:a3:f7:af:3c:b8:
         6c:05:ab:8e:85:3c:34:c9:fb:ac:de:44:5f:cb:2e:3d:80:6f:
         04:21:fc:cd:51:d9:48:44:23:45:b5:99:63:20:26:0f:d4:a8:
         2b:d6:b5:f4:74:39:95:13:61:7f:bc:bf:ff:c3:04:e3:4d:12:
         c4:a4:0e:70:e0:02:ac:fe:f4:65:df:1b:5e:c5:40:20:c1:16:
         78:5f:b1:2c:41:b9:2d:5f:63:82:4e:c6:0f:55:b0:59:24:b2:
         64:79:44:d6:f0:bb:ef:26:0f:6a:b8:2f:10:bb:e3:7e:eb:4d:
         cf:77:9d:49:c0:f1:fd:a3:c3:3a:27:46:5d:6e:ba:70:f1:fb:
         21:c2:d0:f3:41:7f:e4:36:7e:f5:ee:32:bd:eb:cb:f1:8c:59:
         d0:fd:d2:76
-----BEGIN CERTIFICATE-----
MIIEIjCCAwqgAwIBAgIEEAAA+TANBgkqhkiG9w0BAQUFADBEMQswCQYDVQQGEwJE
RTEPMA0GA1UECAwGSGVzc2VuMRQwEgYDVQQKDAtwcml2YWN5aWRlYTEOMAwGA1UE
AwwFQ0EwMDEwHhcNMTYwNDI2MTMxMjQ2WhcNMTcwNDI2MTMxMjQ2WjBQMQ8wDQYD
VQQLEwZyZWFsbTExEjAQBgNVBAMTCWNvcm5lbGl1czEpMCcGCSqGSIb3DQEJARYa
dXNlckBsb2NhbGhvc3QubG9jYWxkb21haW4wggEiMA0GCSqGSIb3DQEBAQUAA4IB
DwAwggEKAoIBAQC4oH6pwGnuYY8bQCb0X/0zx8Kjc1bPDLZf3YGQkmnEdhWWPMri
tgiXNRHMYo4P4mGPiebclIn42dqZRiaiLLMf/Z3hU+Tq1ssE8jnEzKEi8XIp2CKy
TZQgyQgukcewo+0TwTd567oCSYN/9us2UypO9nN55qW9uQiaLeYPWj+CfXN+9kEs
ml74qVuhCc3wNdAXpz52UlZqXqqOJHzDoqqJu3vtOqjsr8z2xt6js41TvcoQmzTN
ueJ8eYpMKHyGCLo+gZmobtXrH1BV1cGXloU2FMrmaYZO0C7/yqKmzjGSBN59Mto9
EB72/PeNghT4WImFDFDc69lb7bQPLPrGHnmRAgMBAAGjggEOMIIBCjALBgNVHQ8E
BAMCBaAwCQYDVR0TBAIwADARBglghkgBhvhCAQEEBAMCBkAwMwYJYIZIAYb4QgEN
BCYWJE9wZW5TU0wgR2VuZXJhdGVkIFNlcnZlciBDZXJ0aWZpY2F0ZTAdBgNVHQ4E
FgQU9ck9mUZzrfmE33//cd+3HH9BjOgwdAYDVR0jBG0wa4AU9KfAzJFGr2TzkfIn
+Miyb4qHMnOhSKRGMEQxCzAJBgNVBAYTAkRFMQ8wDQYDVQQIDAZIZXNzZW4xFDAS
BgNVBAoMC3ByaXZhY3lpZGVhMQ4wDAYDVQQDDAVDQTAwMYIJAPvI66yDzRIHMBMG
A1UdJQQMMAoGCCsGAQUFBwMBMA0GCSqGSIb3DQEBBQUAA4IBAQC9pdx2l/olibjL
tzItOeoftPa6J7NcZ3wIDNFMa/gdRolwyjI8BeW9kSH7EHzspQZz+BrhE3jjnX85
lx9QqH690GFIpldlpxxLRgsvq6x/6mfabi3TNLkkWnJ66l2YMpuAL6F5+i0do/ev
PLhsBauOhTw0yfus3kRfyy49gG8EIfzNUdlIRCNFtZljICYP1Kgr1rX0dDmVE2F/
vL//wwTjTRLEpA5w4AKs/vRl3xtexUAgwRZ4X7EsQbktX2OCTsYPVbBZJLJkeUTW
8LvvJg9quC8Qu+N+603Pd51JwPH9o8M6J0Zdbrpw8fshwtDzQX/kNn717jK968vx
jFnQ/dJ2
-----END CERTIFICATE-----
