Certificate:
    Data:
        Version: 3 (0x2)
        Serial Number: 268435703 (0x100000f7)
    Signature Algorithm: sha1WithRSAEncryption
        Issuer: C=DE, ST=Hessen, O=privacyidea, CN=CA001
        Validity
            Not Before: Apr 26 13:10:05 2016 GMT
            Not After : Apr 26 13:10:05 2017 GMT
        Subject: OU=realm1, CN=cornelius/emailAddress=user@localhost.localdomain
        Subject Public Key Info:
            Public Key Algorithm: rsaEncryption
                Public-Key: (2048 bit)
                Modulus:
                    00:b7:31:bd:86:f6:da:e0:35:91:22:59:bf:d5:2d:
                    7a:4b:7b:c4:88:86:0a:fc:1f:a4:58:ae:47:75:78:
                    e4:53:cf:d9:f0:66:a7:bd:6d:96:e1:52:1e:a8:f1:
                    a2:36:34:a9:53:0d:f6:82:3e:2d:56:33:41:61:6e:
                    a1:cc:d9:83:25:3e:5e:36:a9:c0:ea:55:46:92:10:
                    4e:fb:85:1f:ab:94:fa:00:2b:14:fa:df:9f:28:d1:
                    48:0e:72:5b:5a:74:6f:fb:a5:5d:76:ee:d0:a5:ed:
                    8b:6c:56:ee:b8:a3:b0:1f:63:8c:b9:08:90:3a:28:
                    17:7f:25:13:c0:df:f5:fc:a6:ef:9c:b7:a4:5f:75:
                    ea:67:93:5c:6f:9a:21:e8:65:d1:d6:d3:40:ef:74:
                    fc:32:1d:7b:7e:bf:06:74:bf:17:3f:e2:13:58:58:
                    6a:7a:4e:0f:03:5b:37:b3:0a:cd:8a:cd:af:41:45:
                    e5:e9:97:80:69:c7:c1:d9:d2:9c:26:f1:67:34:b6:
                    c6:1d:c9:81:71:25:63:33:ce:ef:ba:49:a4:50:87:
                    11:8f:08:dd:4f:f1:92:c6:16:b6:a3:e7:9c:a3:f4:
                    4e:4b:8b:aa:81:04:75:10:26:00:e6:c2:5a:f8:a6:
                    2c:5a:b5:58:d6:6d:e6:5d:19:55:29:7c:d5:e8:fd:
                    dc:5f
                Exponent: 65537 (0x10001)
        X509v3 extensions:
            X509v3 Key Usage: 
                Digital Signature, Key Encipherment
            X509v3 Basic Constraints: 
                CA:FALSE
            Netscape Cert Type: 
                SSL Server
            Netscape Comment: 
                OpenSSL Generated Server Certificate
            X509v3 Subject Key Identifier: 
                DC:5F:13:9A:50:7C:12:7F:27:5A:47:5C:51:6D:0A:15:BA:E6:4F:B4
            X509v3 Authority Key Identifier: 
                keyid:F4:A7:C0:CC:91:46:AF:64:F3:91:F2:27:F8:C8:B2:6F:8A:87:32:73
                DirName:/C=DE/ST=Hessen/O=privacyidea/CN=CA001
                serial:FB:C8:EB:AC:83:CD:12:07

            X509v3 Extended Key Usage: 
                TLS Web Server Authentication
    Signature Algorithm: sha1WithRSAEncryption
         8e:b3:d4:af:fb:ad:53:d7:e1:59:0c:e9:a9:fd:38:01:20:ae:
         0f:00:e2:18:36:65:a3:62:e2:a9:f5:af:8f:37:5f:9b:f3:ca:
         ba:e7:06:e7:96:25:50:3c:9c:76:ec:3c:fe:d4:7e:af:f9:cf:
         36:a5:48:8a:b2:f1:21:04:ee:98:eb:09:70:c8:0d:e3:95:7f:
         ac:c0:d9:0d:a3:c8:1c:af:34:a3:4d:ea:1b:0d:6b:e6:9b:cf:
         1d:84:b1:09:88:54:e8:02:46:ff:4d:01:1e:4d:cf:f8:bc:1f:
         d9:25:3d:36:2b:4c:0b:96:bd:5e:e8:f8:f9:d4:c5:42:f5:f6:
         d7:d9:27:c1:22:79:b1:c0:b5:77:78:2f:f2:33:4c:86:40:25:
         2b:f3:21:22:ca:b9:85:47:65:e5:e5:dd:89:15:77:6b:14:c2:
         83:e8:6e:34:72:a0:ff:59:43:0e:85:f6:c9:1e:fb:f2:44:3c:
         72:ef:29:46:36:82:88:72:e0:00:02:8f:b7:c3:49:bb:25:24:
         53:28:bb:aa:a5:87:33:8a:16:05:66:4e:fc:d9:dd:d0:61:42:
         7f:2e:95:31:e6:0f:89:cc:bc:7e:2a:5d:2c:d2:16:3b:97:da:
         0f:29:af:70:c1:55:44:05:59:c5:44:dd:1f:58:ae:b3:05:aa:
         df:b5:e3:89
-----BEGIN CERTIFICATE-----
MIIEIjCCAwqgAwIBAgIEEAAA9zANBgkqhkiG9w0BAQUFADBEMQswCQYDVQQGEwJE
RTEPMA0GA1UECAwGSGVzc2VuMRQwEgYDVQQKDAtwcml2YWN5aWRlYTEOMAwGA1UE
AwwFQ0EwMDEwHhcNMTYwNDI2MTMxMDA1WhcNMTcwNDI2MTMxMDA1WjBQMQ8wDQYD
VQQLEwZyZWFsbTExEjAQBgNVBAMTCWNvcm5lbGl1czEpMCcGCSqGSIb3DQEJARYa
dXNlckBsb2NhbGhvc3QubG9jYWxkb21haW4wggEiMA0GCSqGSIb3DQEBAQUAA4IB
DwAwggEKAoIBAQC3Mb2G9trgNZEiWb/VLXpLe8SIhgr8H6RYrkd1eORTz9nwZqe9
bZbhUh6o8aI2NKlTDfaCPi1WM0FhbqHM2YMlPl42qcDqVUaSEE77hR+rlPoAKxT6
358o0UgOcltadG/7pV127tCl7YtsVu64o7AfY4y5CJA6KBd/JRPA3/X8pu+ct6Rf
depnk1xvmiHoZdHW00DvdPwyHXt+vwZ0vxc/4hNYWGp6Tg8DWzezCs2Kza9BReXp
l4Bpx8HZ0pwm8Wc0tsYdyYFxJWMzzu+6SaRQhxGPCN1P8ZLGFraj55yj9E5Li6qB
BHUQJgDmwlr4pixatVjWbeZdGVUpfNXo/dxfAgMBAAGjggEOMIIBCjALBgNVHQ8E
BAMCBaAwCQYDVR0TBAIwADARBglghkgBhvhCAQEEBAMCBkAwMwYJYIZIAYb4QgEN
BCYWJE9wZW5TU0wgR2VuZXJhdGVkIFNlcnZlciBDZXJ0aWZpY2F0ZTAdBgNVHQ4E
FgQU3F8TmlB8En8nWkdcUW0KFbrmT7QwdAYDVR0jBG0wa4AU9KfAzJFGr2TzkfIn
+Miyb4qHMnOhSKRGMEQxCzAJBgNVBAYTAkRFMQ8wDQYDVQQIDAZIZXNzZW4xFDAS
BgNVBAoMC3ByaXZhY3lpZGVhMQ4wDAYDVQQDDAVDQTAwMYIJAPvI66yDzRIHMBMG
A1UdJQQMMAoGCCsGAQUFBwMBMA0GCSqGSIb3DQEBBQUAA4IBAQCOs9Sv+61T1+FZ
DOmp/TgBIK4PAOIYNmWjYuKp9a+PN1+b88q65wbnliVQPJx27Dz+1H6v+c82pUiK
svEhBO6Y6wlwyA3jlX+swNkNo8gcrzSjTeobDWvmm88dhLEJiFToAkb/TQEeTc/4
vB/ZJT02K0wLlr1e6Pj51MVC9fbX2SfBInmxwLV3eC/yM0yGQCUr8yEiyrmFR2Xl
5d2JFXdrFMKD6G40cqD/WUMOhfbJHvvyRDxy7ylGNoKIcuAAAo+3w0m7JSRTKLuq
pYczihYFZk782d3QYUJ/LpUx5g+JzLx+Kl0s0hY7l9oPKa9wwVVEBVnFRN0fWK6z
BarfteOJ
-----END CERTIFICATE-----
