Certificate:
    Data:
        Version: 3 (0x2)
        Serial Number: 268435694 (0x100000ee)
    Signature Algorithm: sha1WithRSAEncryption
        Issuer: C=DE, ST=Hessen, O=privacyidea, CN=CA001
        Validity
            Not Before: Apr 26 12:46:00 2016 GMT
            Not After : Apr 26 12:46:00 2017 GMT
        Subject: C=DE, ST=Hessen, O=privacyidea, CN=requester.localdomain
        Subject Public Key Info:
            Public Key Algorithm: rsaEncryption
                Public-Key: (2048 bit)
                Modulus:
                    00:cd:be:14:4f:fa:ce:01:3f:42:22:1b:1d:9c:af:
                    dd:92:d2:7f:db:6c:b7:3e:39:43:43:6b:13:03:f1:
                    05:f4:07:74:bc:76:69:28:0b:af:19:8e:d7:fc:e3:
                    cd:c6:58:f2:ca:7f:08:6d:53:fc:07:02:44:24:c6:
                    b4:34:4c:8c:04:fe:33:0e:40:e2:20:ba:02:73:5a:
                    f7:f5:4f:63:6e:cc:c6:b6:df:54:1d:37:39:7d:51:
                    36:26:5f:bd:dc:3f:a8:8b:6b:a2:ae:b6:9d:d6:21:
                    e7:df:41:b8:7a:28:2a:68:48:ca:a8:2d:ed:e1:e9:
                    46:5e:5a:72:6d:b4:84:38:87:91:fd:94:11:0b:28:
                    84:c6:c2:2f:2a:fb:01:f9:36:7a:09:75:d1:33:88:
                    3c:73:41:5b:c8:bf:94:89:70:a1:f0:c0:b9:2e:50:
                    53:1e:b1:17:64:69:f4:2d:81:e0:a9:0d:0e:32:e9:
                    ba:55:8a:85:f1:1b:6f:49:79:b4:7f:88:c3:0d:3e:
                    54:88:9b:3d:1f:38:8c:04:f3:ee:6a:63:2b:f5:c6:
                    db:b4:83:aa:c4:78:41:3a:7d:4b:e1:c8:3e:71:ca:
                    1b:61:59:ea:c6:c4:ca:32:5e:c9:e9:bf:12:29:e6:
                    c6:c3:63:fe:a0:55:da:7a:f1:60:98:4d:26:ed:fa:
                    70:2d
                Exponent: 65537 (0x10001)
        X509v3 extensions:
            X509v3 Key Usage: 
                Digital Signature, Key Encipherment
            X509v3 Basic Constraints: 
                CA:FALSE
            Netscape Cert Type: 
                SSL Server
            Netscape Comment: 
                OpenSSL Generated Server Certificate
            X509v3 Subject Key Identifier: 
                53:3F:ED:5D:09:07:B3:65:7B:AB:45:C9:24:5B:09:77:80:0A:96:ED
            X509v3 Authority Key Identifier: 
                keyid:F4:A7:C0:CC:91:46:AF:64:F3:91:F2:27:F8:C8:B2:6F:8A:87:32:73
                DirName:/C=DE/ST=Hessen/O=privacyidea/CN=CA001
                serial:FB:C8:EB:AC:83:CD:12:07

            X509v3 Extended Key Usage: 
                TLS Web Server Authentication
    Signature Algorithm: sha1WithRSAEncryption
         58:58:3f:35:26:fb:16:8f:4b:5d:ee:f7:9f:dc:06:c9:14:b0:
         41:47:1f:9b:93:0b:ea:43:4f:f4:e7:bf:35:30:4f:98:dc:e9:
         64:d9:9c:18:1f:da:12:59:04:64:d3:7e:24:e2:58:82:07:99:
         63:40:59:c9:67:d4:40:ef:1f:29:28:9b:05:f0:36:8a:1e:97:
         82:93:72:e9:76:0b:e7:eb:4b:5f:e6:91:bc:b3:e7:c2:e4:41:
         39:15:af:ea:86:d7:dd:02:ab:91:e1:72:fe:d1:97:05:b3:de:
         66:7a:49:29:01:ae:1a:ab:12:51:98:83:8e:d4:e2:ba:90:b2:
         e2:fd:74:a0:43:97:c0:73:16:8f:37:cf:60:a0:6a:3e:2b:22:
         05:02:00:01:ae:ac:1e:ad:64:f8:8f:5b:fe:c3:57:96:9d:ad:
         ae:cb:0a:e5:f1:a7:14:b2:45:9f:ee:a6:4f:9e:33:ab:57:d1:
         20:8b:7c:9d:35:64:48:70:00:a1:de:cf:99:7f:50:36:7f:cd:
         34:d6:3f:b1:89:8b:d5:b4:42:69:de:32:d6:42:b4:db:e8:f6:
         8c:0a:c1:c3:bd:d8:b0:90:a7:c2:ed:b1:90:57:ce:32:68:b1:
         95:b6:c9:11:22:74:dd:1a:28:0a:e3:df:93:19:8a:4f:92:c2:
         29:ee:3d:7a
-----BEGIN CERTIFICATE-----
MIIEJjCCAw6gAwIBAgIEEAAA7jANBgkqhkiG9w0BAQUFADBEMQswCQYDVQQGEwJE
RTEPMA0GA1UECAwGSGVzc2VuMRQwEgYDVQQKDAtwcml2YWN5aWRlYTEOMAwGA1UE
AwwFQ0EwMDEwHhcNMTYwNDI2MTI0NjAwWhcNMTcwNDI2MTI0NjAwWjBUMQswCQYD
VQQGEwJERTEPMA0GA1UECAwGSGVzc2VuMRQwEgYDVQQKDAtwcml2YWN5aWRlYTEe
MBwGA1UEAwwVcmVxdWVzdGVyLmxvY2FsZG9tYWluMIIBIjANBgkqhkiG9w0BAQEF
AAOCAQ8AMIIBCgKCAQEAzb4UT/rOAT9CIhsdnK/dktJ/22y3PjlDQ2sTA/EF9Ad0
vHZpKAuvGY7X/OPNxljyyn8IbVP8BwJEJMa0NEyMBP4zDkDiILoCc1r39U9jbszG
tt9UHTc5fVE2Jl+93D+oi2uirrad1iHn30G4eigqaEjKqC3t4elGXlpybbSEOIeR
/ZQRCyiExsIvKvsB+TZ6CXXRM4g8c0FbyL+UiXCh8MC5LlBTHrEXZGn0LYHgqQ0O
Mum6VYqF8RtvSXm0f4jDDT5UiJs9HziMBPPuamMr9cbbtIOqxHhBOn1L4cg+ccob
YVnqxsTKMl7J6b8SKebGw2P+oFXaevFgmE0m7fpwLQIDAQABo4IBDjCCAQowCwYD
VR0PBAQDAgWgMAkGA1UdEwQCMAAwEQYJYIZIAYb4QgEBBAQDAgZAMDMGCWCGSAGG
+EIBDQQmFiRPcGVuU1NMIEdlbmVyYXRlZCBTZXJ2ZXIgQ2VydGlmaWNhdGUwHQYD
VR0OBBYEFFM/7V0JB7Nle6tFySRbCXeACpbtMHQGA1UdIwRtMGuAFPSnwMyRRq9k
85HyJ/jIsm+KhzJzoUikRjBEMQswCQYDVQQGEwJERTEPMA0GA1UECAwGSGVzc2Vu
MRQwEgYDVQQKDAtwcml2YWN5aWRlYTEOMAwGA1UEAwwFQ0EwMDGCCQD7yOusg80S
BzATBgNVHSUEDDAKBggrBgEFBQcDATANBgkqhkiG9w0BAQUFAAOCAQEAWFg/NSb7
Fo9LXe73n9wGyRSwQUcfm5ML6kNP9Oe/NTBPmNzpZNmcGB/aElkEZNN+JOJYggeZ
Y0BZyWfUQO8fKSibBfA2ih6XgpNy6XYL5+tLX+aRvLPnwuRBORWv6obX3QKrkeFy
/tGXBbPeZnpJKQGuGqsSUZiDjtTiupCy4v10oEOXwHMWjzfPYKBqPisiBQIAAa6s
Hq1k+I9b/sNXlp2trssK5fGnFLJFn+6mT54zq1fRIIt8nTVkSHAAod7PmX9QNn/N
NNY/sYmL1bRCad4y1kK02+j2jArBw73YsJCnwu2xkFfOMmixlbbJESJ03RooCuPf
kxmKT5LCKe49eg==
-----END CERTIFICATE-----
