Certificate:
    Data:
        Version: 3 (0x2)
        Serial Number: 268435677 (0x100000dd)
    Signature Algorithm: sha1WithRSAEncryption
        Issuer: C=DE, ST=Hessen, O=privacyidea, CN=CA001
        Validity
            Not Before: May 29 11:39:21 2016 GMT
            Not After : May 29 11:39:21 2017 GMT
        Subject: CN=selfservice,CN=user,O=realm1/emailAddress=meine
        Subject Public Key Info:
            Public Key Algorithm: rsaEncryption
                Public-Key: (2048 bit)
                Modulus:
                    00:cf:3c:d4:33:0e:12:c4:e6:da:cd:b6:56:a1:1c:
                    26:bb:26:1c:8a:4a:73:a8:58:8a:b6:1e:b3:8b:99:
                    d2:1d:07:c2:92:89:79:c0:69:d8:c8:df:28:61:98:
                    1e:b3:fe:ae:2b:bd:78:a9:f7:6e:47:dc:a3:a0:16:
                    8c:85:02:c1:4e:92:fd:72:6e:f0:c8:03:29:9b:b8:
                    00:6e:c0:83:95:c8:34:20:36:9c:b3:e5:e4:e6:76:
                    73:a3:1a:ad:40:96:e0:53:54:00:ec:76:79:9a:c6:
                    0d:7e:b6:bd:29:ec:83:f3:cb:89:a4:cb:6c:00:ba:
                    0c:c5:78:0f:ff:69:b8:94:f4:04:70:43:3f:d8:9e:
                    d7:a7:fb:5d:ce:75:8e:da:e7:c4:07:b1:9d:de:6f:
                    88:4b:b6:4d:9a:cf:f9:bc:fa:9f:cd:32:6d:f6:3a:
                    0b:0d:23:42:78:ec:97:42:bf:0e:4d:60:56:e1:d3:
                    02:f2:19:cb:84:57:90:e5:70:a1:a2:83:35:86:e2:
                    da:86:9f:f9:8a:c4:79:b3:52:28:da:cb:bb:34:ca:
                    d3:da:91:4a:cf:8d:76:a2:b2:6b:9b:f9:96:fd:09:
                    2a:da:11:23:4d:f0:cb:d6:b2:b1:0e:12:6c:9a:19:
                    65:98:87:ca:e4:ee:24:ce:44:ac:90:8f:9d:1b:c5:
                    2a:9d
                Exponent: 65537 (0x10001)
        X509v3 extensions:
            X509v3 Key Usage: 
                Digital Signature, Key Encipherment
            X509v3 Basic Constraints: 
                CA:FALSE
            Netscape Cert Type: 
                SSL Server
            Netscape Comment: 
                OpenSSL Generated Server Certificate
            X509v3 Subject Key Identifier: 
                4D:07:90:AD:FF:1D:0D:E7:1A:DD:D6:2E:FA:BA:34:CB:AA:1F:24:C6
            X509v3 Authority Key Identifier: 
                keyid:F4:A7:C0:CC:91:46:AF:64:F3:91:F2:27:F8:C8:B2:6F:8A:87:32:73
                DirName:/C=DE/ST=Hessen/O=privacyidea/CN=CA001
                serial:FB:C8:EB:AC:83:CD:12:07

            X509v3 Extended Key Usage: 
                TLS Web Server Authentication
    Signature Algorithm: sha1WithRSAEncryption
         29:89:b5:09:4c:62:45:0b:57:4d:79:48:24:1d:de:e7:7c:f7:
         ee:12:73:a9:64:a4:e5:4e:c9:37:44:7e:78:a2:6e:56:86:55:
         53:25:fc:c6:61:bf:fa:34:69:36:06:18:88:03:4c:d6:77:32:
         dd:d2:1d:d1:c6:0b:da:73:ee:0c:77:8c:c1:98:a7:a3:23:0a:
         36:61:6a:af:0d:a1:12:a3:cd:0a:b0:37:fd:97:cf:9f:cb:37:
         a1:be:74:b1:96:9b:49:b3:3c:37:ee:64:a5:97:20:06:0e:c4:
         ba:d6:63:83:9d:01:9e:5c:7c:d3:b8:b0:08:cb:84:10:d1:a5:
         95:69:2b:37:52:f0:b9:d3:e1:5f:82:34:9f:8c:be:40:c9:38:
         94:b6:ae:81:d3:33:98:3e:57:dd:67:61:c8:ff:c8:7a:7e:5d:
         ef:e0:ef:85:63:7f:b8:b1:82:95:dd:01:69:0f:4e:8a:a0:11:
         97:5d:15:6f:5d:0c:53:de:12:4c:a9:2f:cc:c1:de:4f:be:37:
         c8:6d:19:cb:8a:03:62:69:98:d9:b2:38:2f:b8:c7:f7:1c:63:
         c4:3e:f4:ec:10:97:c8:cb:38:ef:fe:1e:be:78:0f:ed:4c:68:
         83:d1:ff:e9:8d:bb:06:79:52:0e:06:f4:0f:55:c1:cb:18:66:
         e6:62:09:21
-----BEGIN CERTIFICATE-----
MIIEDzCCAvegAwIBAgIEEAAA3TANBgkqhkiG9w0BAQUFADBEMQswCQYDVQQGEwJE
RTEPMA0GA1UECAwGSGVzc2VuMRQwEgYDVQQKDAtwcml2YWN5aWRlYTEOMAwGA1UE
AwwFQ0EwMDEwHhcNMTYwNTI5MTEzOTIxWhcNMTcwNTI5MTEzOTIxWjA9MSUwIwYD
VQQDExxzZWxmc2VydmljZSxDTj11c2VyLE89cmVhbG0xMRQwEgYJKoZIhvcNAQkB
FgVtZWluZTCCASIwDQYJKoZIhvcNAQEBBQADggEPADCCAQoCggEBAM881DMOEsTm
2s22VqEcJrsmHIpKc6hYirYes4uZ0h0HwpKJecBp2MjfKGGYHrP+riu9eKn3bkfc
o6AWjIUCwU6S/XJu8MgDKZu4AG7Ag5XINCA2nLPl5OZ2c6MarUCW4FNUAOx2eZrG
DX62vSnsg/PLiaTLbAC6DMV4D/9puJT0BHBDP9ie16f7Xc51jtrnxAexnd5viEu2
TZrP+bz6n80ybfY6Cw0jQnjsl0K/Dk1gVuHTAvIZy4RXkOVwoaKDNYbi2oaf+YrE
ebNSKNrLuzTK09qRSs+NdqKya5v5lv0JKtoRI03wy9aysQ4SbJoZZZiHyuTuJM5E
rJCPnRvFKp0CAwEAAaOCAQ4wggEKMAsGA1UdDwQEAwIFoDAJBgNVHRMEAjAAMBEG
CWCGSAGG+EIBAQQEAwIGQDAzBglghkgBhvhCAQ0EJhYkT3BlblNTTCBHZW5lcmF0
ZWQgU2VydmVyIENlcnRpZmljYXRlMB0GA1UdDgQWBBRNB5Ct/x0N5xrd1i76ujTL
qh8kxjB0BgNVHSMEbTBrgBT0p8DMkUavZPOR8if4yLJviocyc6FIpEYwRDELMAkG
A1UEBhMCREUxDzANBgNVBAgMBkhlc3NlbjEUMBIGA1UECgwLcHJpdmFjeWlkZWEx
DjAMBgNVBAMMBUNBMDAxggkA+8jrrIPNEgcwEwYDVR0lBAwwCgYIKwYBBQUHAwEw
DQYJKoZIhvcNAQEFBQADggEBACmJtQlMYkULV015SCQd3ud89+4Sc6lkpOVOyTdE
fniiblaGVVMl/MZhv/o0aTYGGIgDTNZ3Mt3SHdHGC9pz7gx3jMGYp6MjCjZhaq8N
oRKjzQqwN/2Xz5/LN6G+dLGWm0mzPDfuZKWXIAYOxLrWY4OdAZ5cfNO4sAjLhBDR
pZVpKzdS8LnT4V+CNJ+MvkDJOJS2roHTM5g+V91nYcj/yHp+Xe/g74Vjf7ixgpXd
AWkPToqgEZddFW9dDFPeEkypL8zB3k++N8htGcuKA2JpmNmyOC+4x/ccY8Q+9OwQ
l8jLOO/+Hr54D+1MaIPR/+mNuwZ5Ug4G9A9VwcsYZuZiCSE=
-----END CERTIFICATE-----
