Certificate:
    Data:
        Version: 3 (0x2)
        Serial Number: 268435674 (0x100000da)
    Signature Algorithm: sha1WithRSAEncryption
        Issuer: C=DE, ST=Hessen, O=privacyidea, CN=CA001
        Validity
            Not Before: May 29 11:28:21 2016 GMT
            Not After : May 29 11:28:21 2017 GMT
        Subject: CN=Steve Test/emailAddress=steve@openssl.org
        Subject Public Key Info:
            Public Key Algorithm: rsaEncryption
                Public-Key: (2048 bit)
                Modulus:
                    00:d2:81:89:20:51:48:0f:73:f4:11:32:24:d5:1f:
                    1c:fd:5c:f5:b6:e6:c5:f0:52:81:dc:d2:af:66:4a:
                    7c:93:31:61:5c:af:d1:6d:06:70:03:60:7c:72:0c:
                    88:dd:49:cd:9e:02:6c:d2:5a:d7:53:0f:f3:da:be:
                    69:64:b5:0f:0c:00:e3:b3:50:47:a3:b3:9b:ba:13:
                    50:d6:58:5a:4b:ab:39:e0:11:ca:0a:27:67:03:78:
                    22:66:6d:92:1e:1b:5c:49:ae:e6:6b:d1:8e:3b:9d:
                    06:d3:c6:ac:4d:53:43:10:ab:e8:96:c1:87:82:97:
                    99:8f:20:d3:99:12:37:31:84:e1:8a:ff:29:03:5f:
                    22:90:3e:7f:9b:e0:20:c1:ad:dc:ae:4c:39:1a:31:
                    96:17:02:8c:b2:d9:b4:0d:20:12:9b:7d:86:54:fd:
                    33:fd:c1:2a:62:46:f8:60:96:cf:6e:01:6f:22:df:
                    13:47:e7:97:ec:05:72:23:a3:62:f8:fa:ef:ac:9c:
                    72:f0:37:cb:2f:37:cf:90:a8:27:51:86:c6:d7:78:
                    08:8f:7e:25:a2:15:70:a2:fb:1c:b6:15:5e:a0:97:
                    8b:81:4c:09:28:8a:27:3b:94:bc:71:db:5b:71:37:
                    9a:2b:16:e0:6f:b5:c9:f5:4b:4f:20:ba:65:cf:af:
                    ad:ad
                Exponent: 65537 (0x10001)
        X509v3 extensions:
            X509v3 Key Usage: 
                Digital Signature, Key Encipherment
            X509v3 Basic Constraints: 
                CA:FALSE
            Netscape Cert Type: 
                SSL Server
            Netscape Comment: 
                OpenSSL Generated Server Certificate
            X509v3 Subject Key Identifier: 
                E5:25:6D:3E:AF:0D:DD:3F:4C:F2:45:19:39:D5:14:DB:7E:9C:C0:AD
            X509v3 Authority Key Identifier: 
                keyid:F4:A7:C0:CC:91:46:AF:64:F3:91:F2:27:F8:C8:B2:6F:8A:87:32:73
                DirName:/C=DE/ST=Hessen/O=privacyidea/CN=CA001
                serial:FB:C8:EB:AC:83:CD:12:07

            X509v3 Extended Key Usage: 
                TLS Web Server Authentication
    Signature Algorithm: sha1WithRSAEncryption
         72:f4:de:1a:b7:07:f5:c3:57:30:1c:40:23:78:92:bb:22:5d:
         30:5e:95:4e:25:49:b9:ea:65:c9:46:94:13:4e:56:4c:4e:3c:
         ea:42:e8:9f:3c:ac:b9:fc:2a:43:2f:4e:70:e8:84:2d:b8:9d:
         e8:6b:a9:ab:f1:c3:26:c1:e5:a3:d7:b9:63:4f:ce:ce:0a:83:
         43:85:c8:85:be:c3:2c:94:b6:24:05:78:23:e0:3b:78:6e:4b:
         60:34:b2:8f:1e:fc:19:93:9b:f6:6b:38:67:fc:09:3e:11:d1:
         07:7c:59:72:22:d2:94:e9:63:42:14:02:9e:ee:d4:6b:17:45:
         20:ea:32:79:6d:e0:3d:ac:68:ab:c5:f0:22:0a:43:01:87:00:
         e3:11:fc:80:32:88:cc:17:fd:41:58:cb:19:54:62:62:da:63:
         22:76:85:93:b1:0d:e1:7f:28:2a:e3:5c:c7:2d:df:e0:b9:6c:
         87:c4:55:ad:da:2e:55:55:70:59:3d:9b:b4:3c:27:ab:5f:9e:
         b0:5b:b9:f9:bc:96:2b:39:ff:4a:a3:1e:0a:06:87:1f:3f:c5:
         17:65:bd:06:3a:30:ad:e1:34:01:6f:dd:89:eb:1c:76:00:d2:
         fc:ce:9e:92:4e:bb:5c:49:df:63:43:e3:58:e4:6c:6b:f4:8d:
         ca:42:e4:88
-----BEGIN CERTIFICATE-----
MIIECTCCAvGgAwIBAgIEEAAA2jANBgkqhkiG9w0BAQUFADBEMQswCQYDVQQGEwJE
RTEPMA0GA1UECAwGSGVzc2VuMRQwEgYDVQQKDAtwcml2YWN5aWRlYTEOMAwGA1UE
AwwFQ0EwMDEwHhcNMTYwNTI5MTEyODIxWhcNMTcwNTI5MTEyODIxWjA3MRMwEQYD
VQQDEwpTdGV2ZSBUZXN0MSAwHgYJKoZIhvcNAQkBFhFzdGV2ZUBvcGVuc3NsLm9y
ZzCCASIwDQYJKoZIhvcNAQEBBQADggEPADCCAQoCggEBANKBiSBRSA9z9BEyJNUf
HP1c9bbmxfBSgdzSr2ZKfJMxYVyv0W0GcANgfHIMiN1JzZ4CbNJa11MP89q+aWS1
DwwA47NQR6Ozm7oTUNZYWkurOeARygonZwN4ImZtkh4bXEmu5mvRjjudBtPGrE1T
QxCr6JbBh4KXmY8g05kSNzGE4Yr/KQNfIpA+f5vgIMGt3K5MORoxlhcCjLLZtA0g
Ept9hlT9M/3BKmJG+GCWz24BbyLfE0fnl+wFciOjYvj676yccvA3yy83z5CoJ1GG
xtd4CI9+JaIVcKL7HLYVXqCXi4FMCSiKJzuUvHHbW3E3misW4G+1yfVLTyC6Zc+v
ra0CAwEAAaOCAQ4wggEKMAsGA1UdDwQEAwIFoDAJBgNVHRMEAjAAMBEGCWCGSAGG
+EIBAQQEAwIGQDAzBglghkgBhvhCAQ0EJhYkT3BlblNTTCBHZW5lcmF0ZWQgU2Vy
dmVyIENlcnRpZmljYXRlMB0GA1UdDgQWBBTlJW0+rw3dP0zyRRk51RTbfpzArTB0
BgNVHSMEbTBrgBT0p8DMkUavZPOR8if4yLJviocyc6FIpEYwRDELMAkGA1UEBhMC
REUxDzANBgNVBAgMBkhlc3NlbjEUMBIGA1UECgwLcHJpdmFjeWlkZWExDjAMBgNV
BAMMBUNBMDAxggkA+8jrrIPNEgcwEwYDVR0lBAwwCgYIKwYBBQUHAwEwDQYJKoZI
hvcNAQEFBQADggEBAHL03hq3B/XDVzAcQCN4krsiXTBelU4lSbnqZclGlBNOVkxO
POpC6J88rLn8KkMvTnDohC24nehrqavxwybB5aPXuWNPzs4Kg0OFyIW+wyyUtiQF
eCPgO3huS2A0so8e/BmTm/ZrOGf8CT4R0Qd8WXIi0pTpY0IUAp7u1GsXRSDqMnlt
4D2saKvF8CIKQwGHAOMR/IAyiMwX/UFYyxlUYmLaYyJ2hZOxDeF/KCrjXMct3+C5
bIfEVa3aLlVVcFk9m7Q8J6tfnrBbufm8lis5/0qjHgoGhx8/xRdlvQY6MK3hNAFv
3YnrHHYA0vzOnpJOu1xJ32ND41jkbGv0jcpC5Ig=
-----END CERTIFICATE-----
