Certificate:
    Data:
        Version: 3 (0x2)
        Serial Number: 268435689 (0x100000e9)
    Signature Algorithm: sha1WithRSAEncryption
        Issuer: C=DE, ST=Hessen, O=privacyidea, CN=CA001
        Validity
            Not Before: Apr 26 09:16:00 2016 GMT
            Not After : Apr 26 09:16:00 2017 GMT
        Subject: OU=realm1, CN=cornelius/emailAddress=user@localhost.localdomain
        Subject Public Key Info:
            Public Key Algorithm: rsaEncryption
                Public-Key: (2048 bit)
                Modulus:
                    00:eb:48:9c:f3:db:76:1b:d9:0f:ca:58:06:a1:75:
                    2e:a5:44:ee:bc:87:8b:5b:3b:b8:94:7b:23:c6:e2:
                    0c:13:0e:00:e7:f1:42:a2:c8:8a:c1:81:22:18:f4:
                    62:cc:93:a5:cf:8d:2e:b5:8d:6c:c8:2b:2f:23:ad:
                    7f:10:4a:47:bb:5f:70:dc:88:d0:23:65:f1:7a:82:
                    d2:86:fa:f3:67:ee:57:26:b6:f8:7d:49:77:b8:c5:
                    e1:d4:3c:aa:d2:95:66:f8:b7:d5:21:4b:a7:88:71:
                    72:2e:8a:52:da:bd:5b:d5:75:7f:2f:f7:ec:44:12:
                    ef:ea:24:e7:20:81:12:75:5e:00:48:21:2e:dc:bd:
                    a5:d8:80:ed:8a:ad:25:a1:98:e9:6c:da:cd:ee:15:
                    f7:bc:c4:b4:dc:16:55:26:e0:26:18:6f:43:78:1e:
                    a3:bc:3b:21:87:65:c9:b6:40:89:e7:24:f6:57:14:
                    49:a5:fc:93:9c:69:ac:a1:52:f9:e2:8a:86:67:14:
                    97:be:e6:1f:40:ef:67:e0:ce:2c:ba:2c:e1:f4:32:
                    8e:35:50:72:e1:54:ae:ad:68:1d:95:9a:bb:41:19:
                    13:c8:51:45:99:e3:b8:c2:cd:94:bb:08:c8:3f:44:
                    71:22:98:17:c9:4e:8c:6b:21:4c:4f:0f:d7:1c:51:
                    c7:61
                Exponent: 65537 (0x10001)
        X509v3 extensions:
            X509v3 Key Usage: 
                Digital Signature, Key Encipherment
            X509v3 Basic Constraints: 
                CA:FALSE
            Netscape Cert Type: 
                SSL Server
            Netscape Comment: 
                OpenSSL Generated Server Certificate
            X509v3 Subject Key Identifier: 
                AF:07:59:3D:56:9E:DC:6A:41:80:5A:28:4E:57:55:DA:9B:7A:69:E3
            X509v3 Authority Key Identifier: 
                keyid:F4:A7:C0:CC:91:46:AF:64:F3:91:F2:27:F8:C8:B2:6F:8A:87:32:73
                DirName:/C=DE/ST=Hessen/O=privacyidea/CN=CA001
                serial:FB:C8:EB:AC:83:CD:12:07

            X509v3 Extended Key Usage: 
                TLS Web Server Authentication
    Signature Algorithm: sha1WithRSAEncryption
         a8:63:46:9f:02:e9:11:62:c5:33:19:57:67:99:fe:51:4e:1e:
         93:00:dd:62:18:07:b9:6a:3d:98:bf:14:9a:0f:3e:95:65:66:
         bd:db:35:96:e8:97:12:a1:29:24:b5:31:86:d5:33:cf:e2:37:
         84:1d:4f:5b:8a:bd:26:4c:0e:b4:de:50:68:4c:f8:19:fb:94:
         33:9a:83:4c:24:cf:99:ce:f6:da:45:3c:ae:55:e1:b1:a5:ae:
         bd:b7:12:b4:9c:7e:25:06:07:8d:60:2f:8c:73:35:70:f2:5c:
         87:dc:ad:70:ee:a4:71:44:19:7e:44:e4:67:d3:73:88:4d:e7:
         f0:90:d1:f0:2a:a5:cd:96:49:9a:a9:72:45:bc:31:fe:38:a4:
         4a:2f:02:ea:2a:fd:9f:ce:ba:70:83:36:b5:99:56:fb:7c:06:
         35:f4:54:b7:ac:2a:12:46:f8:9f:e3:13:35:36:7b:1d:34:42:
         87:1e:e3:13:67:95:af:6d:4f:2b:a6:a0:27:97:75:25:fb:f5:
         0b:cd:0a:65:b3:76:79:b6:d6:8e:b7:33:fa:60:cf:7a:59:38:
         4d:33:82:42:8f:9f:63:8d:65:85:19:dc:bc:e0:25:94:aa:aa:
         40:a8:21:aa:57:5a:67:6a:eb:af:f8:48:15:bc:31:3b:c4:d4:
         13:41:49:6a
-----BEGIN CERTIFICATE-----
MIIEIjCCAwqgAwIBAgIEEAAA6TANBgkqhkiG9w0BAQUFADBEMQswCQYDVQQGEwJE
RTEPMA0GA1UECAwGSGVzc2VuMRQwEgYDVQQKDAtwcml2YWN5aWRlYTEOMAwGA1UE
AwwFQ0EwMDEwHhcNMTYwNDI2MDkxNjAwWhcNMTcwNDI2MDkxNjAwWjBQMQ8wDQYD
VQQLEwZyZWFsbTExEjAQBgNVBAMTCWNvcm5lbGl1czEpMCcGCSqGSIb3DQEJARYa
dXNlckBsb2NhbGhvc3QubG9jYWxkb21haW4wggEiMA0GCSqGSIb3DQEBAQUAA4IB
DwAwggEKAoIBAQDrSJzz23Yb2Q/KWAahdS6lRO68h4tbO7iUeyPG4gwTDgDn8UKi
yIrBgSIY9GLMk6XPjS61jWzIKy8jrX8QSke7X3DciNAjZfF6gtKG+vNn7lcmtvh9
SXe4xeHUPKrSlWb4t9UhS6eIcXIuilLavVvVdX8v9+xEEu/qJOcggRJ1XgBIIS7c
vaXYgO2KrSWhmOls2s3uFfe8xLTcFlUm4CYYb0N4HqO8OyGHZcm2QInnJPZXFEml
/JOcaayhUvniioZnFJe+5h9A72fgziy6LOH0Mo41UHLhVK6taB2VmrtBGRPIUUWZ
47jCzZS7CMg/RHEimBfJToxrIUxPD9ccUcdhAgMBAAGjggEOMIIBCjALBgNVHQ8E
BAMCBaAwCQYDVR0TBAIwADARBglghkgBhvhCAQEEBAMCBkAwMwYJYIZIAYb4QgEN
BCYWJE9wZW5TU0wgR2VuZXJhdGVkIFNlcnZlciBDZXJ0aWZpY2F0ZTAdBgNVHQ4E
FgQUrwdZPVae3GpBgFooTldV2pt6aeMwdAYDVR0jBG0wa4AU9KfAzJFGr2TzkfIn
+Miyb4qHMnOhSKRGMEQxCzAJBgNVBAYTAkRFMQ8wDQYDVQQIDAZIZXNzZW4xFDAS
BgNVBAoMC3ByaXZhY3lpZGVhMQ4wDAYDVQQDDAVDQTAwMYIJAPvI66yDzRIHMBMG
A1UdJQQMMAoGCCsGAQUFBwMBMA0GCSqGSIb3DQEBBQUAA4IBAQCoY0afAukRYsUz
GVdnmf5RTh6TAN1iGAe5aj2YvxSaDz6VZWa92zWW6JcSoSkktTGG1TPP4jeEHU9b
ir0mTA603lBoTPgZ+5QzmoNMJM+ZzvbaRTyuVeGxpa69txK0nH4lBgeNYC+MczVw
8lyH3K1w7qRxRBl+RORn03OITefwkNHwKqXNlkmaqXJFvDH+OKRKLwLqKv2fzrpw
gza1mVb7fAY19FS3rCoSRvif4xM1NnsdNEKHHuMTZ5WvbU8rpqAnl3Ul+/ULzQpl
s3Z5ttaOtzP6YM96WThNM4JCj59jjWWFGdy84CWUqqpAqCGqV1pnauuv+EgVvDE7
xNQTQUlq
-----END CERTIFICATE-----
