Certificate:
    Data:
        Version: 3 (0x2)
        Serial Number: 268435662 (0x100000ce)
    Signature Algorithm: sha1WithRSAEncryption
        Issuer: C=DE, ST=Hessen, O=privacyidea, CN=CA001
        Validity
            Not Before: Aug 15 12:27:57 2016 GMT
            Not After : Aug 15 12:27:57 2017 GMT
        Subject: OU=realm1, CN=cornelius/emailAddress=user@localhost.localdomain
        Subject Public Key Info:
            Public Key Algorithm: rsaEncryption
                Public-Key: (2048 bit)
                Modulus:
                    00:f9:f0:b6:2c:91:8e:0b:5a:fe:f1:c4:f8:06:28:
                    84:64:4a:07:14:99:e8:da:8f:67:b8:1b:6a:78:b9:
                    bd:14:4a:e2:20:c3:0f:95:75:2a:c3:6c:82:31:e1:
                    d6:45:5e:74:47:6c:f7:ae:fa:eb:18:2a:80:49:b5:
                    4b:30:6b:eb:88:c0:ae:d9:b6:1c:d2:89:fd:16:25:
                    33:f2:16:d6:10:15:37:a9:f6:1f:57:e3:60:d7:6d:
                    1f:58:d1:d5:61:19:34:df:f8:1c:d7:15:69:7f:e6:
                    44:30:7c:ba:53:eb:67:2b:62:41:25:3a:58:b4:43:
                    ad:64:6b:62:f7:c6:b0:4f:f5:f2:82:18:6e:f9:01:
                    e2:03:99:75:82:0d:98:bc:3b:7d:25:74:ab:21:1a:
                    91:4e:62:1f:f3:ab:0e:74:2f:41:01:a6:55:d1:21:
                    8c:b0:2d:fa:50:27:fb:9e:96:1a:d9:91:de:11:08:
                    ba:ec:8c:91:e4:3f:0b:5f:e6:bc:b4:81:cd:45:20:
                    9c:95:c9:22:71:4a:31:44:96:65:4f:15:b0:37:30:
                    f9:98:d4:cd:12:06:60:fe:c6:51:0c:c4:0b:30:43:
                    98:d8:2f:d0:c6:31:d7:0d:95:96:2e:0f:df:66:0e:
                    4b:cd:16:40:7c:4c:00:77:22:4b:37:1e:0e:d8:41:
                    e6:e9
                Exponent: 65537 (0x10001)
        X509v3 extensions:
            X509v3 Key Usage: 
                Digital Signature, Key Encipherment
            X509v3 Basic Constraints: 
                CA:FALSE
            Netscape Cert Type: 
                SSL Server
            Netscape Comment: 
                OpenSSL Generated Server Certificate
            X509v3 Subject Key Identifier: 
                26:44:0D:60:4D:4D:C7:2D:8E:05:B9:3E:DB:55:FE:04:35:0B:BA:E1
            X509v3 Authority Key Identifier: 
                keyid:F4:A7:C0:CC:91:46:AF:64:F3:91:F2:27:F8:C8:B2:6F:8A:87:32:73
                DirName:/C=DE/ST=Hessen/O=privacyidea/CN=CA001
                serial:FB:C8:EB:AC:83:CD:12:07

            X509v3 Extended Key Usage: 
                TLS Web Server Authentication
    Signature Algorithm: sha1WithRSAEncryption
         6d:b7:df:13:7e:8d:d6:c2:b7:26:b1:45:e1:aa:50:30:c2:e5:
         c8:94:96:c5:94:ad:91:d9:fb:d9:b1:f2:53:df:bb:71:89:eb:
         7b:0c:78:8d:83:fc:79:d4:66:6a:ef:7b:87:5c:f9:50:ce:10:
         c1:a2:41:fe:e8:50:d1:78:21:ae:2c:bf:b8:a8:ca:b6:f6:6a:
         f2:a7:4b:8a:18:45:44:c3:af:f2:91:a2:f6:1f:5a:ec:a9:ef:
         f7:3c:58:af:44:14:c8:a7:a5:f5:cf:f5:ad:ae:ae:09:96:5b:
         f6:20:96:f5:91:d4:7a:81:35:6d:09:7d:ca:45:0c:c2:21:15:
         fc:07:38:a1:12:b7:a8:fd:25:d0:85:2c:5e:45:9b:70:1b:7b:
         0d:33:59:5d:65:00:fe:48:38:7e:d8:b1:5b:29:15:b9:7d:56:
         d1:ea:ce:35:96:df:e7:a4:e4:93:69:7b:e7:f1:10:c4:34:96:
         c9:d7:6a:78:50:5a:5e:01:0d:a4:a5:0c:a7:4d:6c:9d:20:8c:
         ae:05:de:c3:10:d6:cb:45:3c:f7:3e:89:6f:61:b0:03:09:f3:
         be:56:bb:8b:85:ea:2d:00:f4:65:fb:5a:36:64:66:58:8d:ad:
         49:9b:85:f1:a4:e7:0c:0d:2f:bf:11:36:c3:7e:3c:34:69:21:
         a0:86:6d:53
-----BEGIN CERTIFICATE-----
MIIEIjCCAwqgAwIBAgIEEAAAzjANBgkqhkiG9w0BAQUFADBEMQswCQYDVQQGEwJE
RTEPMA0GA1UECAwGSGVzc2VuMRQwEgYDVQQKDAtwcml2YWN5aWRlYTEOMAwGA1UE
AwwFQ0EwMDEwHhcNMTYwODE1MTIyNzU3WhcNMTcwODE1MTIyNzU3WjBQMQ8wDQYD
VQQLEwZyZWFsbTExEjAQBgNVBAMTCWNvcm5lbGl1czEpMCcGCSqGSIb3DQEJARYa
dXNlckBsb2NhbGhvc3QubG9jYWxkb21haW4wggEiMA0GCSqGSIb3DQEBAQUAA4IB
DwAwggEKAoIBAQD58LYskY4LWv7xxPgGKIRkSgcUmejaj2e4G2p4ub0USuIgww+V
dSrDbIIx4dZFXnRHbPeu+usYKoBJtUswa+uIwK7ZthzSif0WJTPyFtYQFTep9h9X
42DXbR9Y0dVhGTTf+BzXFWl/5kQwfLpT62crYkElOli0Q61ka2L3xrBP9fKCGG75
AeIDmXWCDZi8O30ldKshGpFOYh/zqw50L0EBplXRIYywLfpQJ/uelhrZkd4RCLrs
jJHkPwtf5ry0gc1FIJyVySJxSjFElmVPFbA3MPmY1M0SBmD+xlEMxAswQ5jYL9DG
MdcNlZYuD99mDkvNFkB8TAB3Iks3Hg7YQebpAgMBAAGjggEOMIIBCjALBgNVHQ8E
BAMCBaAwCQYDVR0TBAIwADARBglghkgBhvhCAQEEBAMCBkAwMwYJYIZIAYb4QgEN
BCYWJE9wZW5TU0wgR2VuZXJhdGVkIFNlcnZlciBDZXJ0aWZpY2F0ZTAdBgNVHQ4E
FgQUJkQNYE1Nxy2OBbk+21X+BDULuuEwdAYDVR0jBG0wa4AU9KfAzJFGr2TzkfIn
+Miyb4qHMnOhSKRGMEQxCzAJBgNVBAYTAkRFMQ8wDQYDVQQIDAZIZXNzZW4xFDAS
BgNVBAoMC3ByaXZhY3lpZGVhMQ4wDAYDVQQDDAVDQTAwMYIJAPvI66yDzRIHMBMG
A1UdJQQMMAoGCCsGAQUFBwMBMA0GCSqGSIb3DQEBBQUAA4IBAQBtt98Tfo3Wwrcm
sUXhqlAwwuXIlJbFlK2R2fvZsfJT37txiet7DHiNg/x51GZq73uHXPlQzhDBokH+
6FDReCGuLL+4qMq29mryp0uKGEVEw6/ykaL2H1rsqe/3PFivRBTIp6X1z/Wtrq4J
llv2IJb1kdR6gTVtCX3KRQzCIRX8BzihEreo/SXQhSxeRZtwG3sNM1ldZQD+SDh+
2LFbKRW5fVbR6s41lt/npOSTaXvn8RDENJbJ12p4UFpeAQ2kpQynTWydIIyuBd7D
ENbLRTz3PolvYbADCfO+VruLheotAPRl+1o2ZGZYja1Jm4XxpOcMDS+/ETbDfjw0
aSGghm1T
-----END CERTIFICATE-----
