Certificate:
    Data:
        Version: 3 (0x2)
        Serial Number: 268435661 (0x100000cd)
    Signature Algorithm: sha1WithRSAEncryption
        Issuer: C=DE, ST=Hessen, O=privacyidea, CN=CA001
        Validity
            Not Before: Aug 15 12:27:56 2016 GMT
            Not After : Aug 15 12:27:56 2017 GMT
        Subject: C=DE, ST=Hessen, O=privacyidea, CN=requester.localdomain
        Subject Public Key Info:
            Public Key Algorithm: rsaEncryption
                Public-Key: (2048 bit)
                Modulus:
                    00:cd:be:14:4f:fa:ce:01:3f:42:22:1b:1d:9c:af:
                    dd:92:d2:7f:db:6c:b7:3e:39:43:43:6b:13:03:f1:
                    05:f4:07:74:bc:76:69:28:0b:af:19:8e:d7:fc:e3:
                    cd:c6:58:f2:ca:7f:08:6d:53:fc:07:02:44:24:c6:
                    b4:34:4c:8c:04:fe:33:0e:40:e2:20:ba:02:73:5a:
                    f7:f5:4f:63:6e:cc:c6:b6:df:54:1d:37:39:7d:51:
                    36:26:5f:bd:dc:3f:a8:8b:6b:a2:ae:b6:9d:d6:21:
                    e7:df:41:b8:7a:28:2a:68:48:ca:a8:2d:ed:e1:e9:
                    46:5e:5a:72:6d:b4:84:38:87:91:fd:94:11:0b:28:
                    84:c6:c2:2f:2a:fb:01:f9:36:7a:09:75:d1:33:88:
                    3c:73:41:5b:c8:bf:94:89:70:a1:f0:c0:b9:2e:50:
                    53:1e:b1:17:64:69:f4:2d:81:e0:a9:0d:0e:32:e9:
                    ba:55:8a:85:f1:1b:6f:49:79:b4:7f:88:c3:0d:3e:
                    54:88:9b:3d:1f:38:8c:04:f3:ee:6a:63:2b:f5:c6:
                    db:b4:83:aa:c4:78:41:3a:7d:4b:e1:c8:3e:71:ca:
                    1b:61:59:ea:c6:c4:ca:32:5e:c9:e9:bf:12:29:e6:
                    c6:c3:63:fe:a0:55:da:7a:f1:60:98:4d:26:ed:fa:
                    70:2d
                Exponent: 65537 (0x10001)
        X509v3 extensions:
            X509v3 Key Usage: 
                Digital Signature, Key Encipherment
            X509v3 Basic Constraints: 
                CA:FALSE
            Netscape Cert Type: 
                SSL Server
            Netscape Comment: 
                OpenSSL Generated Server Certificate
            X509v3 Subject Key Identifier: 
                53:3F:ED:5D:09:07:B3:65:7B:AB:45:C9:24:5B:09:77:80:0A:96:ED
            X509v3 Authority Key Identifier: 
                keyid:F4:A7:C0:CC:91:46:AF:64:F3:91:F2:27:F8:C8:B2:6F:8A:87:32:73
                DirName:/C=DE/ST=Hessen/O=privacyidea/CN=CA001
                serial:FB:C8:EB:AC:83:CD:12:07

            X509v3 Extended Key Usage: 
                TLS Web Server Authentication
    Signature Algorithm: sha1WithRSAEncryption
         16:1d:22:90:bb:7f:1c:d7:f7:7b:bd:91:8c:85:52:b2:69:b4:
         41:61:c6:ce:d2:7f:e7:f0:98:3a:6b:0e:bd:e7:de:71:26:ce:
         e8:ff:3a:15:bf:02:0b:e3:c8:ae:14:80:c6:a2:af:ba:7d:c2:
         98:d6:11:23:20:d6:18:36:4b:18:2d:eb:b2:ad:55:04:eb:a2:
         35:d8:01:2a:04:ca:44:c6:be:ef:f1:99:ef:92:fc:69:23:5e:
         ba:36:9d:10:15:a0:61:7c:cc:4c:ee:4b:38:9c:51:43:78:0c:
         d6:a4:12:a6:df:76:d4:64:ef:12:e4:98:73:0f:ee:0b:9a:ef:
         d6:bc:06:89:e4:12:5f:7a:61:e9:e2:31:0f:18:60:e7:14:78:
         17:a0:96:15:ce:e8:24:49:0c:69:d3:fc:a9:56:68:4e:5b:c3:
         d0:2b:8d:8e:db:fc:a2:a6:a5:11:4d:8c:22:9a:ee:d6:a3:8d:
         c9:83:a0:c1:b3:24:66:65:1b:cf:09:5c:33:83:3c:a7:fe:cd:
         e2:df:ef:b3:69:a4:2c:46:59:1b:ac:b3:02:fa:01:a4:86:0f:
         96:87:55:31:27:e1:dd:7e:49:9a:bc:07:ed:7b:d6:ec:93:b9:
         c2:43:73:a3:4a:3c:45:84:fc:91:fe:b6:a9:61:50:c1:8f:10:
         3a:e0:bb:c2
-----BEGIN CERTIFICATE-----
MIIEJjCCAw6gAwIBAgIEEAAAzTANBgkqhkiG9w0BAQUFADBEMQswCQYDVQQGEwJE
RTEPMA0GA1UECAwGSGVzc2VuMRQwEgYDVQQKDAtwcml2YWN5aWRlYTEOMAwGA1UE
AwwFQ0EwMDEwHhcNMTYwODE1MTIyNzU2WhcNMTcwODE1MTIyNzU2WjBUMQswCQYD
VQQGEwJERTEPMA0GA1UECAwGSGVzc2VuMRQwEgYDVQQKDAtwcml2YWN5aWRlYTEe
MBwGA1UEAwwVcmVxdWVzdGVyLmxvY2FsZG9tYWluMIIBIjANBgkqhkiG9w0BAQEF
AAOCAQ8AMIIBCgKCAQEAzb4UT/rOAT9CIhsdnK/dktJ/22y3PjlDQ2sTA/EF9Ad0
vHZpKAuvGY7X/OPNxljyyn8IbVP8BwJEJMa0NEyMBP4zDkDiILoCc1r39U9jbszG
tt9UHTc5fVE2Jl+93D+oi2uirrad1iHn30G4eigqaEjKqC3t4elGXlpybbSEOIeR
/ZQRCyiExsIvKvsB+TZ6CXXRM4g8c0FbyL+UiXCh8MC5LlBTHrEXZGn0LYHgqQ0O
Mum6VYqF8RtvSXm0f4jDDT5UiJs9HziMBPPuamMr9cbbtIOqxHhBOn1L4cg+ccob
YVnqxsTKMl7J6b8SKebGw2P+oFXaevFgmE0m7fpwLQIDAQABo4IBDjCCAQowCwYD
VR0PBAQDAgWgMAkGA1UdEwQCMAAwEQYJYIZIAYb4QgEBBAQDAgZAMDMGCWCGSAGG
+EIBDQQmFiRPcGVuU1NMIEdlbmVyYXRlZCBTZXJ2ZXIgQ2VydGlmaWNhdGUwHQYD
VR0OBBYEFFM/7V0JB7Nle6tFySRbCXeACpbtMHQGA1UdIwRtMGuAFPSnwMyRRq9k
85HyJ/jIsm+KhzJzoUikRjBEMQswCQYDVQQGEwJERTEPMA0GA1UECAwGSGVzc2Vu
MRQwEgYDVQQKDAtwcml2YWN5aWRlYTEOMAwGA1UEAwwFQ0EwMDGCCQD7yOusg80S
BzATBgNVHSUEDDAKBggrBgEFBQcDATANBgkqhkiG9w0BAQUFAAOCAQEAFh0ikLt/
HNf3e72RjIVSsmm0QWHGztJ/5/CYOmsOvefecSbO6P86Fb8CC+PIrhSAxqKvun3C
mNYRIyDWGDZLGC3rsq1VBOuiNdgBKgTKRMa+7/GZ75L8aSNeujadEBWgYXzMTO5L
OJxRQ3gM1qQSpt921GTvEuSYcw/uC5rv1rwGieQSX3ph6eIxDxhg5xR4F6CWFc7o
JEkMadP8qVZoTlvD0CuNjtv8oqalEU2MIpru1qONyYOgwbMkZmUbzwlcM4M8p/7N
4t/vs2mkLEZZG6yzAvoBpIYPlodVMSfh3X5JmrwH7XvW7JO5wkNzo0o8RYT8kf62
qWFQwY8QOuC7wg==
-----END CERTIFICATE-----
