Certificate:
    Data:
        Version: 3 (0x2)
        Serial Number: 268435659 (0x100000cb)
    Signature Algorithm: sha1WithRSAEncryption
        Issuer: C=DE, ST=Hessen, O=privacyidea, CN=CA001
        Validity
            Not Before: Aug 15 12:24:23 2016 GMT
            Not After : Aug 15 12:24:23 2017 GMT
        Subject: C=DE, ST=Hessen, O=privacyidea, CN=usercert
        Subject Public Key Info:
            Public Key Algorithm: rsaEncryption
                Public-Key: (2048 bit)
                Modulus:
                    00:dc:2f:d1:5f:29:97:d4:7c:c3:53:c8:30:bd:4b:
                    67:70:2c:24:6b:b8:5e:eb:21:7a:48:12:56:7c:81:
                    5c:48:75:b6:68:eb:f6:f2:98:4e:50:51:d1:7f:6c:
                    73:f3:0a:a7:ae:be:48:5e:e5:d6:e1:d9:2a:7c:32:
                    6e:4e:fd:08:f6:5a:54:49:23:73:c3:b9:07:18:d1:
                    ef:b3:ac:f8:8a:dc:94:96:a4:90:3a:8e:74:df:e6:
                    0d:37:1b:bd:5b:b7:25:1a:56:39:da:6f:91:aa:5e:
                    1c:74:f3:f9:7c:14:01:83:12:65:76:c7:bb:fe:36:
                    5b:95:e9:72:65:83:ed:3e:98:30:71:fa:87:dd:a3:
                    36:5a:30:03:2e:26:e0:61:d1:bf:02:3f:b6:06:1f:
                    4a:89:28:1c:5c:a2:ff:4e:be:94:e6:8c:e0:da:82:
                    f1:9d:29:32:48:30:73:b4:04:f6:42:1e:be:f7:e2:
                    32:32:27:3c:9d:89:2f:70:3e:85:9a:6f:5c:c5:09:
                    c0:8c:32:2f:72:22:c9:d2:95:1f:b6:ac:72:60:72:
                    b7:82:4d:6b:ce:5b:e3:00:d0:d2:2f:58:c6:e0:10:
                    e5:51:ca:4d:3b:2e:e6:7e:ab:84:d6:56:f1:93:35:
                    a0:93:64:26:81:75:2f:91:b5:16:06:38:0b:db:cc:
                    2d:07
                Exponent: 65537 (0x10001)
        X509v3 extensions:
            X509v3 Key Usage: 
                Digital Signature, Key Encipherment
            X509v3 Basic Constraints: 
                CA:FALSE
            Netscape Cert Type: 
                SSL Server
            Netscape Comment: 
                OpenSSL Generated Server Certificate
            X509v3 Subject Key Identifier: 
                FC:14:D1:F0:4B:8D:00:90:F2:F5:B8:71:9E:4E:97:C3:92:54:AD:0B
            X509v3 Authority Key Identifier: 
                keyid:F4:A7:C0:CC:91:46:AF:64:F3:91:F2:27:F8:C8:B2:6F:8A:87:32:73
                DirName:/C=DE/ST=Hessen/O=privacyidea/CN=CA001
                serial:FB:C8:EB:AC:83:CD:12:07

            X509v3 Extended Key Usage: 
                TLS Web Server Authentication
    Signature Algorithm: sha1WithRSAEncryption
         88:2e:19:bd:8c:36:8f:93:a7:30:57:98:b4:a6:e0:eb:66:85:
         4b:69:39:ac:a4:ae:6f:4f:3b:35:ad:71:25:f5:38:87:89:36:
         74:ce:cf:87:bf:26:d4:6a:6c:1e:0c:7e:fd:58:d1:69:99:0f:
         5f:3f:4e:16:a4:b4:dc:cf:47:0f:85:e8:b1:b9:48:f7:70:f2:
         d3:44:be:0a:72:25:78:ab:59:03:c6:17:9c:1a:ff:f0:ab:d2:
         e4:13:41:df:d9:50:b4:12:f6:80:14:b9:41:f5:62:ee:74:d3:
         6e:40:04:ac:be:a6:88:b8:28:17:4e:13:4c:ce:c0:57:23:3d:
         ce:12:53:f1:8d:af:93:39:27:30:77:d0:2a:64:e3:22:c1:bc:
         ed:81:63:65:89:35:e3:46:c1:c8:11:57:36:a6:e2:eb:12:70:
         e2:7a:2d:5a:37:0a:13:c2:84:4a:cf:27:5c:dd:7d:f5:8e:cc:
         3b:cb:6e:1c:2c:81:9d:ab:c9:a2:19:90:78:de:d7:2c:db:e2:
         40:66:87:0b:4e:7a:cd:8a:21:44:5a:cd:bd:f4:68:79:38:fc:
         85:47:73:f6:2e:05:bb:ff:34:1c:fb:87:bb:84:60:4a:df:3f:
         ac:17:60:06:df:b0:78:eb:60:58:2e:63:0e:a0:01:ad:70:5e:
         dc:75:32:72
-----BEGIN CERTIFICATE-----
MIIEGTCCAwGgAwIBAgIEEAAAyzANBgkqhkiG9w0BAQUFADBEMQswCQYDVQQGEwJE
RTEPMA0GA1UECAwGSGVzc2VuMRQwEgYDVQQKDAtwcml2YWN5aWRlYTEOMAwGA1UE
AwwFQ0EwMDEwHhcNMTYwODE1MTIyNDIzWhcNMTcwODE1MTIyNDIzWjBHMQswCQYD
VQQGEwJERTEPMA0GA1UECAwGSGVzc2VuMRQwEgYDVQQKDAtwcml2YWN5aWRlYTER
MA8GA1UEAwwIdXNlcmNlcnQwggEiMA0GCSqGSIb3DQEBAQUAA4IBDwAwggEKAoIB
AQDcL9FfKZfUfMNTyDC9S2dwLCRruF7rIXpIElZ8gVxIdbZo6/bymE5QUdF/bHPz
Cqeuvkhe5dbh2Sp8Mm5O/Qj2WlRJI3PDuQcY0e+zrPiK3JSWpJA6jnTf5g03G71b
tyUaVjnab5GqXhx08/l8FAGDEmV2x7v+NluV6XJlg+0+mDBx+ofdozZaMAMuJuBh
0b8CP7YGH0qJKBxcov9OvpTmjODagvGdKTJIMHO0BPZCHr734jIyJzydiS9wPoWa
b1zFCcCMMi9yIsnSlR+2rHJgcreCTWvOW+MA0NIvWMbgEOVRyk07LuZ+q4TWVvGT
NaCTZCaBdS+RtRYGOAvbzC0HAgMBAAGjggEOMIIBCjALBgNVHQ8EBAMCBaAwCQYD
VR0TBAIwADARBglghkgBhvhCAQEEBAMCBkAwMwYJYIZIAYb4QgENBCYWJE9wZW5T
U0wgR2VuZXJhdGVkIFNlcnZlciBDZXJ0aWZpY2F0ZTAdBgNVHQ4EFgQU/BTR8EuN
AJDy9bhxnk6Xw5JUrQswdAYDVR0jBG0wa4AU9KfAzJFGr2TzkfIn+Miyb4qHMnOh
SKRGMEQxCzAJBgNVBAYTAkRFMQ8wDQYDVQQIDAZIZXNzZW4xFDASBgNVBAoMC3By
aXZhY3lpZGVhMQ4wDAYDVQQDDAVDQTAwMYIJAPvI66yDzRIHMBMGA1UdJQQMMAoG
CCsGAQUFBwMBMA0GCSqGSIb3DQEBBQUAA4IBAQCILhm9jDaPk6cwV5i0puDrZoVL
aTmspK5vTzs1rXEl9TiHiTZ0zs+HvybUamweDH79WNFpmQ9fP04WpLTcz0cPheix
uUj3cPLTRL4KciV4q1kDxhecGv/wq9LkE0Hf2VC0EvaAFLlB9WLudNNuQASsvqaI
uCgXThNMzsBXIz3OElPxja+TOScwd9AqZOMiwbztgWNliTXjRsHIEVc2puLrEnDi
ei1aNwoTwoRKzydc3X31jsw7y24cLIGdq8miGZB43tcs2+JAZocLTnrNiiFEWs29
9Gh5OPyFR3P2LgW7/zQc+4e7hGBK3z+sF2AG37B462BYLmMOoAGtcF7cdTJy
-----END CERTIFICATE-----
