ccollections
OrderedDict
p1
((lp2
(lp3
S'1.cz'
p4
a(lp5
S'1.cz'
p6
a(lp7
S'/s\\/([^\\/]+)/'
p8
aS'q'
aaS's/{k}'
p9
aS'iso-8859-2'
p10
aaa(lp11
S'www.123people.com'
p12
a(lp13
S'123people'
p14
a(lp15
S'/s\\/([^\\/]+)/'
p16
aS'search_term'
p17
aaS's/{k}'
p18
aaa(lp19
S'123people.{}'
p20
a(lp21
g14
aaa(lp22
S'so.360.cn'
p23
a(lp24
S'360search'
p25
aS'q'
aS's?q={k}'
p26
a(lp27
S'UTF-8'
p28
aS'gb2312'
p29
aaaa(lp30
S'www.so.com'
p31
a(lp32
g25
aS'q'
aS's?q={k}'
p33
a(lp34
S'UTF-8'
p35
ag29
aaaa(lp36
S'www.abacho.de'
p37
a(lp38
S'Abacho'
p39
aS'q'
aS'suche?q={k}'
p40
aaa(lp41
S'www.abacho.com'
p42
a(lp43
g39
aaa(lp44
S'www.abacho.co.uk'
p45
a(lp46
g39
aaa(lp47
S'www.se.abacho.com'
p48
a(lp49
g39
aaa(lp50
S'www.tr.abacho.com'
p51
a(lp52
g39
aaa(lp53
S'www.abacho.at'
p54
a(lp55
g39
aaa(lp56
S'www.abacho.fr'
p57
a(lp58
g39
aaa(lp59
S'www.abacho.es'
p60
a(lp61
g39
aaa(lp62
S'www.abacho.ch'
p63
a(lp64
g39
aaa(lp65
S'www.abacho.it'
p66
a(lp67
g39
aaa(lp68
S'abcsok.no'
p69
a(lp70
S'ABCs\xc3\xb8k'
p71
aS'q'
aS'?q={k}'
p72
aaa(lp73
S'verden.abcsok.no'
p74
a(lp75
S'ABCs\xc3\xb8k'
p76
aaa(lp77
S'www.acoon.de'
p78
a(lp79
S'Acoon'
p80
aS'begriff'
p81
aS'cgi-bin/search.exe?begriff={k}'
p82
aaa(lp83
S'chercherfr.aguea.com'
p84
a(lp85
S'Aguea'
p86
aS'q'
aS's.py?q={k}'
p87
aaa(lp88
S'alexa.com'
p89
a(lp90
S'Alexa'
p91
aS'q'
aS'search?q={k}'
p92
aaa(lp93
S'search.toolbars.alexa.com'
p94
a(lp95
g91
aaa(lp96
S'rechercher.aliceadsl.fr'
p97
a(lp98
S'Alice Adsl'
p99
aS'qs'
p100
aS'google.pl?qs={k}'
p101
aaa(lp102
S'www.allesklar.de'
p103
a(lp104
S'Allesklar'
p105
aS'words'
p106
aS'?words={k}'
p107
aaa(lp108
S'www.allesklar.at'
p109
a(lp110
g105
aaa(lp111
S'www.allesklar.ch'
p112
a(lp113
g105
aaa(lp114
S'www.alltheweb.com'
p115
a(lp116
S'AllTheWeb'
p117
aS'q'
aS'search?q={k}'
p118
aaa(lp119
S'all.by'
p120
a(lp121
S'All.by'
p122
aS'query'
p123
aS'cgi-bin/search.cgi?mode=by&query={k}'
p124
aaa(lp125
S'www.altavista.com'
p126
a(lp127
S'AltaVista'
p128
aS'q'
aS'web/results?q={k}'
p129
aaa(lp130
S'search.altavista.com'
p131
a(lp132
g128
aaa(lp133
S'listings.altavista.com'
p134
a(lp135
g128
aaa(lp136
S'altavista.de'
p137
a(lp138
g128
aaa(lp139
S'altavista.fr'
p140
a(lp141
g128
aaa(lp142
S'{}.altavista.com'
p143
a(lp144
g128
aaa(lp145
S'be-nl.altavista.com'
p146
a(lp147
g128
aaa(lp148
S'be-fr.altavista.com'
p149
a(lp150
g128
aaa(lp151
S'apollo.lv/portal/search/'
p152
a(lp153
S'Apollo lv'
p154
aS'q'
aS'?cof=FORID%3A11&q={k}&search_where=www'
p155
aaa(lp156
S'apollo7.de'
p157
a(lp158
S'Apollo7'
p159
ag123
aS'a7db/index.php?query={k}&de_sharelook=true&de_bing=true&de_witch=true&de_google=true&de_yahoo=true&de_lycos=true'
p160
aaa(lp161
S'search.aol.com'
p162
a(lp163
S'AOL'
p164
a(lp165
g123
aS'q'
aaS'aol/search?q={k}'
p166
aaa(lp167
S'search.aol.it'
p168
a(lp169
g164
aaa(lp170
S'aolsearch.aol.com'
p171
a(lp172
g164
aaa(lp173
S'www.aolrecherche.aol.fr'
p174
a(lp175
g164
aaa(lp176
S'www.aolrecherches.aol.fr'
p177
a(lp178
g164
aaa(lp179
S'www.aolimages.aol.fr'
p180
a(lp181
g164
aaa(lp182
S'aim.search.aol.com'
p183
a(lp184
g164
aaa(lp185
S'www.recherche.aol.fr'
p186
a(lp187
g164
aaa(lp188
S'recherche.aol.fr'
p189
a(lp190
g164
aaa(lp191
S'find.web.aol.com'
p192
a(lp193
g164
aaa(lp194
S'recherche.aol.ca'
p195
a(lp196
g164
aaa(lp197
S'aolsearch.aol.co.uk'
p198
a(lp199
g164
aaa(lp200
S'search.aol.co.uk'
p201
a(lp202
g164
aaa(lp203
S'aolrecherche.aol.fr'
p204
a(lp205
g164
aaa(lp206
S'sucheaol.aol.de'
p207
a(lp208
g164
aaa(lp209
S'suche.aol.de'
p210
a(lp211
g164
aaa(lp212
S'o2suche.aol.de'
p213
a(lp214
g164
aaa(lp215
S'suche.aolsvc.de'
p216
a(lp217
g164
aaa(lp218
S'aolbusqueda.aol.com.mx'
p219
a(lp220
g164
aaa(lp221
S'alicesuche.aol.de'
p222
a(lp223
g164
aaa(lp224
S'alicesuchet.aol.de'
p225
a(lp226
g164
aaa(lp227
S'suchet2.aol.de'
p228
a(lp229
g164
aaa(lp230
S'search.hp.my.aol.com.au'
p231
a(lp232
g164
aaa(lp233
S'search.hp.my.aol.de'
p234
a(lp235
g164
aaa(lp236
S'search.hp.my.aol.it'
p237
a(lp238
g164
aaa(lp239
S'search-intl.netscape.com'
p240
a(lp241
g164
aaa(lp242
S'de.aolsearch.com'
p243
a(lp244
g164
aS'q'
aS'search?q={k}'
p245
aaa(lp246
S'sm.aport.ru'
p247
a(lp248
S'Aport'
p249
aS'r'
aS'search?r={k}'
p250
aaa(lp251
S'arama.com'
p252
a(lp253
S'Arama'
p254
aS'q'
aS'search.php3?q={k}'
p255
aaa(lp256
S'www.arcor.de'
p257
a(lp258
S'Arcor'
p259
aS'Keywords'
p260
aS'content/searchresult.jsp?Keywords={k}'
p261
aaa(lp262
S'arianna.libero.it'
p263
a(lp264
S'Arianna'
p265
ag123
aS'search/abin/integrata.cgi?query={k}'
p266
aaa(lp267
S'www.arianna.com'
p268
a(lp269
g265
aaa(lp270
S'ask.com'
p271
a(lp272
S'Ask'
p273
a(lp274
S'ask'
p275
aS'q'
aS'searchfor'
p276
aaS'web?q={k}'
p277
aaa(lp278
S'web.ask.com'
p279
a(lp280
g273
aaa(lp281
S'int.ask.com'
p282
a(lp283
g273
aaa(lp284
S'mws.ask.com'
p285
a(lp286
g273
aaa(lp287
S'images.ask.com'
p288
a(lp289
g273
aaa(lp290
S'images.{}.ask.com'
p291
a(lp292
g273
aaa(lp293
S'ask.reference.com'
p294
a(lp295
g273
aaa(lp296
S'www.askkids.com'
p297
a(lp298
g273
aaa(lp299
S'iwon.ask.com'
p300
a(lp301
g273
aaa(lp302
S'www.ask.co.uk'
p303
a(lp304
g273
aaa(lp305
S'{}.ask.com'
p306
a(lp307
g273
aaa(lp308
S'www.qbyrd.com'
p309
a(lp310
g273
aaa(lp311
S'{}.qbyrd.com'
p312
a(lp313
g273
aaa(lp314
S'www.search-results.com'
p315
a(lp316
g273
aaa(lp317
S'www1.search-results.com'
p318
a(lp319
g273
aaa(lp320
S'int.search-results.com'
p321
a(lp322
g273
aaa(lp323
S'{}.search-results.com'
p324
a(lp325
g273
aaa(lp326
S'search.ask.com'
p327
a(lp328
g273
aaa(lp329
S'{}.search.ask.com'
p330
a(lp331
g273
aaa(lp332
S'avira-int.ask.com'
p333
a(lp334
g273
aaa(lp335
S'searchqu.com'
p336
a(lp337
g273
aaa(lp338
S'search.tb.ask.com'
p339
a(lp340
g273
aaa(lp341
S'nortonsafe.search.ask.com'
p342
a(lp343
g273
aaa(lp344
S'safesearch.avira.com'
p345
a(lp346
g273
aaa(lp347
S'avira.search.ask.com'
p348
a(lp349
g273
aaa(lp350
S'int.search.tb.ask.com'
p351
a(lp352
g273
aaa(lp353
S'searchatlas.centrum.cz'
p354
a(lp355
S'Atlas'
p356
aS'q'
aS'?q={k}'
p357
aaa(lp358
S'search.auone.jp'
p359
a(lp360
S'auone'
p361
aS'q'
aS'?q={k}'
p362
aaa(lp363
S'sp-image.search.auone.jp'
p364
a(lp365
S'auone Images'
p366
aS'q'
aS'?q={k}'
p367
aaa(lp368
S'www2.austronaut.at'
p369
a(lp370
S'Austronaut'
p371
aS'q'
aaa(lp372
S'www1.austronaut.at'
p373
a(lp374
g371
aaa(lp375
S'search.babylon.com'
p376
a(lp377
S'Babylon'
p378
a(lp379
S'q'
aS'/\\/web\\/(.*)/'
p380
aaS'?q={k}'
p381
aaa(lp382
S'searchassist.babylon.com'
p383
a(lp384
g378
aaa(lp385
S'www.baidu.com'
p386
a(lp387
S'Baidu'
p388
a(lp389
S'wd'
p390
aS'word'
p391
aS'kw'
p392
aaS's?wd={k}'
p393
a(lp394
S'UTF-8'
p395
ag29
aaaa(lp396
S'www1.baidu.com'
p397
a(lp398
g388
aaa(lp399
S'm.baidu.com'
p400
a(lp401
g388
a(lp402
g390
ag391
ag392
aaS's?wd={k}'
p403
a(lp404
S'UTF-8'
p405
ag29
aaaa(lp406
S'm5.baidu.com'
p407
a(lp408
g388
a(lp409
g390
ag391
ag392
aaS's?wd={k}'
p410
a(lp411
S'UTF-8'
p412
ag29
aaaa(lp413
S'pos.baidu.com'
p414
a(lp415
g388
a(lp416
g390
ag391
ag392
aaS's?wd={k}'
p417
a(lp418
S'UTF-8'
p419
ag29
aaaa(lp420
S'www.baidu.co.th'
p421
a(lp422
g388
aaa(lp423
S'zhidao.baidu.com'
p424
a(lp425
g388
a(lp426
g390
ag391
ag392
aaaa(lp427
S'tieba.baidu.com'
p428
a(lp429
g388
aaa(lp430
S'news.baidu.com'
p431
a(lp432
g388
aaa(lp433
S'web.gougou.com'
p434
a(lp435
g388
aS'search'
p436
aS'search?search={k}'
p437
aaa(lp438
S'cgi.search.biglobe.ne.jp'
p439
a(lp440
S'Biglobe'
p441
aS'q'
aS'cgi-bin/search-st?q={k}'
p442
aaa(lp443
S'images.search.biglobe.ne.jp'
p444
a(lp445
S'Biglobe Images'
p446
aS'q'
aS'cgi-bin/search-st?q={k}'
p447
aaa(lp448
S'bing.com'
p449
a(lp450
S'Bing'
p451
a(lp452
S'q'
aS'Q'
aaS'search?q={k}'
p453
aaa(lp454
S'{}.bing.com'
p455
a(lp456
g451
a(lp457
S'q'
aS'Q'
aaS'search?q={k}'
p458
aaa(lp459
S'msnbc.msn.com'
p460
a(lp461
g451
aaa(lp462
S'dizionario.it.msn.com'
p463
a(lp464
g451
aaa(lp465
S'enciclopedia.it.msn.com'
p466
a(lp467
g451
aaa(lp468
S'cc.bingj.com'
p469
a(lp470
g451
aaa(lp471
S'bing.com/images/search'
p472
a(lp473
S'Bing Images'
p474
a(lp475
S'q'
aS'Q'
aaS'?q={k}'
p476
aaa(lp477
S'{}.bing.com/images/search'
p478
a(lp479
S'Bing Images'
p480
aaa(lp481
S'blekko.com'
p482
a(lp483
S'blekko'
p484
a(lp485
S'q'
aS'/\\/ws\\/(.*)/'
p486
aaS'ws/{k}'
p487
aaa(lp488
S'www.blogdigger.com'
p489
a(lp490
S'Blogdigger'
p491
aS'q'
aaa(lp492
S'www.blogpulse.com'
p493
a(lp494
S'Blogpulse'
p495
ag123
aS'search?query={k}'
p496
aaa(lp497
S'search.bluewin.ch'
p498
a(lp499
S'Bluewin'
p500
a(lp501
S'searchTerm'
p502
aS'q'
aaS'v2/index.php?q={k}'
p503
aaa(lp504
S'web.canoe.ca'
p505
a(lp506
S'Canoe.ca'
p507
aS'q'
aS'search?q={k}'
p508
aaa(lp509
S'search.centrum.cz'
p510
a(lp511
S'Centrum'
p512
aS'q'
aS'?q={k}'
p513
aaa(lp514
S'morfeo.centrum.cz'
p515
a(lp516
g512
aaa(lp517
S'www.charter.net'
p518
a(lp519
S'Charter'
p520
aS'q'
aS'search/index.php?q={k}'
p521
aaa(lp522
S'claro-search.com'
p523
a(lp524
S'Claro Search'
p525
aS'q'
aS'?q={k}'
p526
aaa(lp527
S'pesquisa.clix.pt'
p528
a(lp529
S'Clix'
p530
aS'question'
p531
aS'resultado.html?in=Mundial&question={k}'
p532
aaa(lp533
S'search.conduit.com'
p534
a(lp535
S'Conduit.com'
p536
aS'q'
aS'Results.aspx?q={k}'
p537
aaa(lp538
S'images.search.conduit.com'
p539
a(lp540
S'Conduit.com'
p541
aaa(lp542
S'search.comcast.net'
p543
a(lp544
S'Comcast'
p545
aS'q'
aS'?q={k}'
p546
aaa(lp547
S'www.crawler.com'
p548
a(lp549
S'Crawler'
p550
aS'q'
aS'search/results1.aspx?q={k}'
p551
aaa(lp552
S'websearch.cs.com'
p553
a(lp554
S'Compuserve.com (Enhanced by Google)'
p555
ag123
aS'cs/search?query={k}'
p556
aaa(lp557
S'www.cuil.com'
p558
a(lp559
S'Cuil'
p560
aS'q'
aS'search?q={k}'
p561
aaa(lp562
S'daemon-search.com'
p563
a(lp564
S'Daemon search'
p565
aS'q'
aS'explore/web?q={k}'
p566
aaa(lp567
S'my.daemon-search.com'
p568
a(lp569
S'Daemon search'
p570
aaa(lp571
S'www.dasoertliche.de'
p572
a(lp573
S'DasOertliche'
p574
ag392
aaa(lp575
S'www2.dasoertliche.de'
p576
a(lp577
g574
a(lp578
S'ph'
p579
ag392
aaaa(lp580
S'www1.dastelefonbuch.de'
p581
a(lp582
S'DasTelefonbuch'
p583
ag392
aaa(lp584
S'search.daum.net'
p585
a(lp586
S'Daum'
p587
aS'q'
aS'search?q={k}'
p588
aaa(lp589
S'smart.delfi.lv'
p590
a(lp591
S'Delfi lv'
p592
aS'q'
aS'find?q={k}'
p593
aaa(lp594
S'otsing.delfi.ee'
p595
a(lp596
S'Delfi EE'
p597
aS'q'
aS'find?q={k}'
p598
aaa(lp599
S'digg.com'
p600
a(lp601
S'Digg'
p602
aS's'
aS'search?s={k}'
p603
aaa(lp604
S'fr.dir.com'
p605
a(lp606
S'dir.com'
p607
aS'req'
p608
aaa(lp609
S'dmoz.org'
p610
a(lp611
S'dmoz'
p612
ag436
aaa(lp613
S'editors.dmoz.org'
p614
a(lp615
g612
aaa(lp616
S'duckduckgo.com'
p617
a(lp618
S'DuckDuckGo'
p619
aS'q'
aS'?q={k}'
p620
aaa(lp621
S'r.duckduckgo.com'
p622
a(lp623
g619
aaa(lp624
S'search.earthlink.net'
p625
a(lp626
S'Earthlink'
p627
aS'q'
aS'search?q={k}'
p628
aaa(lp629
S'ecosia.org'
p630
a(lp631
S'Ecosia'
p632
aS'q'
aS'search.php?q={k}'
p633
aaa(lp634
S'www.eniro.se'
p635
a(lp636
S'Eniro'
p637
a(lp638
S'q'
aS'search_word'
p639
aaS'query?q={k}'
p640
aaa(lp641
S'www.eurip.com'
p642
a(lp643
S'Eurip'
p644
aS'q'
aS'search/?q={k}'
p645
aaa(lp646
S'www.euroseek.com'
p647
a(lp648
S'Euroseek'
p649
aS'string'
p650
aS'system/search.cgi?string={k}'
p651
aaa(lp652
S'www.everyclick.com'
p653
a(lp654
S'Everyclick'
p655
aS'keyword'
p656
aaa(lp657
S'search.excite.it'
p658
a(lp659
S'Excite'
p660
aS'q'
aS'web/?q={k}'
p661
aaa(lp662
S'search.excite.fr'
p663
a(lp664
g660
aaa(lp665
S'search.excite.de'
p666
a(lp667
g660
aaa(lp668
S'search.excite.co.uk'
p669
a(lp670
g660
aaa(lp671
S'search.excite.es'
p672
a(lp673
g660
aaa(lp674
S'search.excite.nl'
p675
a(lp676
g660
aaa(lp677
S'msxml.excite.com'
p678
a(lp679
g660
aS'/\\/[^\\/]+\\/ws\\/results\\/[^\\/]+\\/([^\\/]+)/'
p680
aaa(lp681
S'www.excite.co.jp'
p682
a(lp683
g660
ag436
aS'search.gw?search={k}'
p684
aS'SHIFT_JIS'
p685
aaa(lp686
S'www.exalead.fr'
p687
a(lp688
S'Exalead'
p689
aS'q'
aS'search/results?q={k}'
p690
aaa(lp691
S'www.exalead.com'
p692
a(lp693
g689
aaa(lp694
S'eo.st'
p695
a(lp696
S'eo'
p697
aS'x_query'
p698
aS'cgi-bin/eolost.cgi?x_query={k}'
p699
aaa(lp700
S'www.facebook.com'
p701
a(lp702
S'Facebook'
p703
aS'q'
aS'search/?q={k}'
p704
aaa(lp705
S'www.fastbrowsersearch.com'
p706
a(lp707
S'Fast Browser Search'
p708
aS'q'
aS'results/results.aspx?q={k}'
p709
aaa(lp710
S'recherche.francite.com'
p711
a(lp712
S'Francite'
p713
aS'name'
p714
aaa(lp715
S'www.findhurtig.dk'
p716
a(lp717
S'Findhurtig'
p718
aS'q'
aS'web?q={k}'
p719
aaa(lp720
S'www.fireball.de'
p721
a(lp722
S'Fireball'
p723
aS'q'
aS'ajax.asp?q={k}'
p724
aaa(lp725
S'www.firstsfind.com'
p726
a(lp727
S'Firstsfind'
p728
aS'qry'
p729
aaa(lp730
S'www.fixsuche.de'
p731
a(lp732
S'Fixsuche'
p733
aS'q'
aaa(lp734
S'www.flix.de'
p735
a(lp736
S'Flix.de'
p737
ag656
aaa(lp738
S'forestle.org'
p739
a(lp740
S'Forestle'
p741
aS'q'
aS'search.php?q={k}'
p742
aaa(lp743
S'{}.forestle.org'
p744
a(lp745
g741
aaa(lp746
S'forestle.mobi'
p747
a(lp748
g741
aaa(lp749
S'search.free.fr'
p750
a(lp751
S'Free'
p752
aS'q'
aaa(lp753
S'search1-2.free.fr'
p754
a(lp755
g752
aaa(lp756
S'search1-1.free.fr'
p757
a(lp758
g752
aaa(lp759
S'search.freecause.com'
p760
a(lp761
S'FreeCause'
p762
aS'p'
aS'?p={k}'
p763
aaa(lp764
S'suche.freenet.de'
p765
a(lp766
S'Freenet'
p767
a(lp768
g123
ag260
aaS'suche/?query={k}'
p769
aaa(lp770
S'friendfeed.com'
p771
a(lp772
S'FriendFeed'
p773
aS'q'
aS'search?q={k}'
p774
aaa(lp775
S'gais.cs.ccu.edu.tw'
p776
a(lp777
S'GAIS'
p778
aS'q'
aS'search.php?q={k}'
p779
aaa(lp780
S'search.genieo.com'
p781
a(lp782
S'Genieo'
p783
aS'q'
aS'&q={k}'
p784
aaa(lp785
S'geona.net'
p786
a(lp787
S'Geona'
p788
aS'q'
aS'search?q={k}'
p789
aaa(lp790
S'www.gigablast.com'
p791
a(lp792
S'Gigablast'
p793
aS'q'
aS'search?q={k}'
p794
aaa(lp795
S'dir.gigablast.com'
p796
a(lp797
S'Gigablast (Directory)'
p798
aS'q'
aaa(lp799
S'www.gnadenmeer.de'
p800
a(lp801
S'Gnadenmeer'
p802
ag656
aaa(lp803
S'www.gomeo.com'
p804
a(lp805
S'Gomeo'
p806
a(lp807
g260
aS'/\\/search\\/([^\\/]+)/'
p808
aaS'/search/{k}'
p809
aaa(lp810
S'search.goo.ne.jp'
p811
a(lp812
S'goo'
p813
aS'MT'
p814
aS'web.jsp?MT={k}'
p815
aaa(lp816
S'ocnsearch.goo.ne.jp'
p817
a(lp818
g813
aaa(lp819
S'google.com'
p820
a(lp821
S'Google'
p822
aS'q'
aS'search?q={k}'
p823
aaa(lp824
S'google.{}'
p825
a(lp826
g822
aS'q'
aS'search?q={k}'
p827
aaa(lp828
S'www2.google.com'
p829
a(lp830
g822
aaa(lp831
S'ipv6.google.com'
p832
a(lp833
g822
aaa(lp834
S'go.google.com'
p835
a(lp836
g822
aaa(lp837
S'wwwgoogle.com'
p838
a(lp839
g822
aaa(lp840
S'wwwgoogle.{}'
p841
a(lp842
g822
aaa(lp843
S'gogole.com'
p844
a(lp845
g822
aaa(lp846
S'gogole.{}'
p847
a(lp848
g822
aaa(lp849
S'gppgle.com'
p850
a(lp851
g822
aaa(lp852
S'gppgle.{}'
p853
a(lp854
g822
aaa(lp855
S'googel.com'
p856
a(lp857
g822
aaa(lp858
S'googel.{}'
p859
a(lp860
g822
aaa(lp861
S'search.avg.com'
p862
a(lp863
g822
aaa(lp864
S'isearch.avg.com'
p865
a(lp866
g822
aaa(lp867
S'www.cnn.com'
p868
a(lp869
g822
ag123
aaa(lp870
S'darkoogle.com'
p871
a(lp872
g822
aaa(lp873
S'search.darkoogle.com'
p874
a(lp875
g822
aaa(lp876
S'search.foxtab.com'
p877
a(lp878
g822
aaa(lp879
S'www.gooofullsearch.com'
p880
a(lp881
g822
ag260
aaa(lp882
S'search.hiyo.com'
p883
a(lp884
g822
aaa(lp885
S'search.incredimail.com'
p886
a(lp887
g822
aaa(lp888
S'search1.incredimail.com'
p889
a(lp890
g822
aaa(lp891
S'search2.incredimail.com'
p892
a(lp893
g822
aaa(lp894
S'search3.incredimail.com'
p895
a(lp896
g822
aaa(lp897
S'search4.incredimail.com'
p898
a(lp899
g822
aaa(lp900
S'search.sweetim.com'
p901
a(lp902
g822
aaa(lp903
S'www.fastweb.it'
p904
a(lp905
g822
aaa(lp906
S'search.juno.com'
p907
a(lp908
g822
ag123
aaa(lp909
S'find.tdc.dk'
p910
a(lp911
g822
aaa(lp912
S'it.luna.tv'
p913
a(lp914
g822
aaa(lp915
S'searchresults.verizon.com'
p916
a(lp917
g822
aaa(lp918
S'search.walla.co.il'
p919
a(lp920
g822
aaa(lp921
S'search.alot.com'
p922
a(lp923
g822
aaa(lp924
S'suche.gmx.net'
p925
a(lp926
g822
aS'q'
aS'web?q={k}'
p927
aaa(lp928
S'search.incredibar.com'
p929
a(lp930
g822
aS'q'
aS'search.php?q={k}'
p931
aaa(lp932
S'www.delta-search.com'
p933
a(lp934
g822
aS'q'
aaa(lp935
S'www1.delta-search.com'
p936
a(lp937
g822
aS'q'
aaa(lp938
S'search.1und1.de'
p939
a(lp940
g822
aS'q'
aS'web?q={k}'
p941
aaa(lp942
S'suche.1und1.de'
p943
a(lp944
g822
aS'q'
aS'web?q={k}'
p945
aaa(lp946
S'search.zonealarm.com'
p947
a(lp948
g822
aaa(lp949
S'start.lenovo.com'
p950
a(lp951
g822
aS'q'
aS'search/index.php?q={k}'
p952
aaa(lp953
S'wow.com'
p954
a(lp955
g822
aaa(lp956
S'{}.wow.com'
p957
a(lp958
g822
aaa(lp959
S'search.leonardo.it'
p960
a(lp961
g822
aaa(lp962
S'www.optuszoo.com.au'
p963
a(lp964
g822
aaa(lp965
S'search.dolphin-browser.jp'
p966
a(lp967
g822
aaa(lp968
S'search.smt.docomo.ne.jp'
p969
a(lp970
g822
ag814
aaa(lp971
S'image.search.smt.docomo.ne.jp'
p972
a(lp973
g822
ag814
aaa(lp974
S'gfsoso.com'
p975
a(lp976
g822
aS'q'
aaa(lp977
S'searches.safehomepage.com'
p978
a(lp979
g822
aS'q'
aaa(lp980
S'searches.f-secure.com'
p981
a(lp982
g822
ag123
aS'search?query={k}'
p983
aaa(lp984
S'startgoogle.startpagina.nl'
p985
a(lp986
S'Startpagina (Google)'
p987
aS'q'
aS'?q={k}'
p988
aaa(lp989
S'webcache.googleusercontent.com'
p990
a(lp991
g822
aS'/\\/search\\?q=cache:[A-Za-z0-9]+:[^+]+([^&]+)/'
p992
aS'search?q={k}'
p993
aaa(lp994
S'encrypted.google.com'
p995
a(lp996
S'Google SSL'
p997
aS'q'
aS'search?q={k}'
p998
aaa(lp999
S'blogsearch.google.com'
p1000
a(lp1001
S'Google Blogsearch'
p1002
aS'q'
aS'blogsearch?q={k}'
p1003
aaa(lp1004
S'blogsearch.google.{}'
p1005
a(lp1006
S'Google Blogsearch'
p1007
aaa(lp1008
S'google.com/cse'
p1009
a(lp1010
S'Google Custom Search'
p1011
a(lp1012
S'q'
ag123
aaaa(lp1013
S'google.{}/cse'
p1014
a(lp1015
S'Google Custom Search'
p1016
aaa(lp1017
S'google.com/custom'
p1018
a(lp1019
S'Google Custom Search'
p1020
aaa(lp1021
S'google.{}/custom'
p1022
a(lp1023
S'Google Custom Search'
p1024
aaa(lp1025
S'translate.google.com'
p1026
a(lp1027
S'Google Translations'
p1028
aS'q'
aaa(lp1029
S'images.google.com'
p1030
a(lp1031
S'Google Images'
p1032
aS'q'
aS'images?q={k}'
p1033
aaa(lp1034
S'images.google.{}'
p1035
a(lp1036
S'Google Images'
p1037
aaa(lp1038
S'maps.google.com'
p1039
a(lp1040
S'Google Maps'
p1041
aS'q'
aS'maps?q={k}'
p1042
aaa(lp1043
S'maps.google.{}'
p1044
a(lp1045
S'Google Maps'
p1046
aaa(lp1047
S'news.google.com'
p1048
a(lp1049
S'Google News'
p1050
aS'q'
aaa(lp1051
S'news.google.{}'
p1052
a(lp1053
S'Google News'
p1054
aaa(lp1055
S'google.com/products'
p1056
a(lp1057
S'Google Shopping'
p1058
aS'q'
aS'?q={k}&tbm=shop'
p1059
aaa(lp1060
S'google.{}/products'
p1061
a(lp1062
S'Google Shopping'
p1063
aaa(lp1064
S'googlesyndicatedsearch.com'
p1065
a(lp1066
S'Google syndicated search'
p1067
aS'q'
aaa(lp1068
S'video.google.com'
p1069
a(lp1070
S'Google Video'
p1071
aS'q'
aS'search?q={k}&tbm=vid'
p1072
aaa(lp1073
S'scholar.google.com'
p1074
a(lp1075
S'Google Scholar'
p1076
aS'q'
aS'scholar?q={k}'
p1077
aaa(lp1078
S'scholar.google.{}'
p1079
a(lp1080
S'Google Scholar'
p1081
aaa(lp1082
S'www.goyellow.de'
p1083
a(lp1084
S'GoYellow.de'
p1085
aS'MDN'
p1086
aaa(lp1087
S'www.gulesider.no'
p1088
a(lp1089
S'Gule Sider'
p1090
aS'q'
aaa(lp1091
S'www.haosou.com'
p1092
a(lp1093
g25
aS'q'
aS's?q={k}'
p1094
aaa(lp1095
S'm.haosou.com'
p1096
a(lp1097
g25
aS'q'
aS's?q={k}'
p1098
aaa(lp1099
S'www.highbeam.com'
p1100
a(lp1101
S'HighBeam'
p1102
aS'q'
aS'Search.aspx?q={k}'
p1103
aaa(lp1104
S'req.hit-parade.com'
p1105
a(lp1106
S'Hit-Parade'
p1107
aS'p7'
p1108
aS'general/recherche.asp?p7={k}'
p1109
aaa(lp1110
S'class.hit-parade.com'
p1111
a(lp1112
S'Hit-Parade'
p1113
aaa(lp1114
S'www.hit-parade.com'
p1115
a(lp1116
S'Hit-Parade'
p1117
aaa(lp1118
S'holmes.ge'
p1119
a(lp1120
S'Holmes'
p1121
aS'q'
aS'search.htm?q={k}'
p1122
aaa(lp1123
S'www.hooseek.com'
p1124
a(lp1125
S'Hooseek'
p1126
aS'recherche'
p1127
aS'web?recherche={k}'
p1128
aaa(lp1129
S'www.hotbot.com'
p1130
a(lp1131
S'Hotbot'
p1132
ag123
aaa(lp1133
S'blogs.icerocket.com'
p1134
a(lp1135
S'Icerocket'
p1136
aS'q'
aS'search?q={k}'
p1137
aaa(lp1138
S'www.icq.com'
p1139
a(lp1140
S'ICQ'
p1141
aS'q'
aS'search/results.php?q={k}'
p1142
aaa(lp1143
S'search.icq.com'
p1144
a(lp1145
g1141
aaa(lp1146
S'www.ilse.nl'
p1147
a(lp1148
S'Ilse NL'
p1149
aS'search_for'
p1150
aS'?search_for={k}'
p1151
aaa(lp1152
S'search.imesh.com'
p1153
a(lp1154
S'iMesh'
p1155
a(lp1156
S'q'
aS'si'
p1157
aaS'web?q={k}'
p1158
aaa(lp1159
S'www2.inbox.com'
p1160
a(lp1161
S'Inbox'
p1162
aS'q'
aS'search/results1.aspx?q={k}'
p1163
aaa(lp1164
S'infospace.com'
p1165
a(lp1166
S'InfoSpace'
p1167
aS'q'
aS'/search/web?q={k}'
p1168
aaa(lp1169
S'dogpile.com'
p1170
a(lp1171
g1167
aaa(lp1172
S'tattoodle.com'
p1173
a(lp1174
g1167
aaa(lp1175
S'metacrawler.com'
p1176
a(lp1177
g1167
aaa(lp1178
S'webfetch.com'
p1179
a(lp1180
g1167
aaa(lp1181
S'webcrawler.com'
p1182
a(lp1183
g1167
aaa(lp1184
S'search.kiwee.com'
p1185
a(lp1186
g1167
aaa(lp1187
S'searches.vi-view.com'
p1188
a(lp1189
g1167
aaa(lp1190
S'search.webssearches.com'
p1191
a(lp1192
g1167
aaa(lp1193
S'search.fbdownloader.com'
p1194
a(lp1195
g1167
aaa(lp1196
S'searches3.globososo.com'
p1197
a(lp1198
g1167
aaa(lp1199
S'wsdsold.infospace.com'
p1200
a(lp1201
g1167
aS'/\\/[^\\/]+\\/ws\\/results\\/[^\\/]+\\/([^\\/]+)/'
p1202
aS'pemonitorhosted/ws/results/Web/{k}/1/417/TopNavigation/Source/'
p1203
aaa(lp1204
S'isearch.babylon.com'
p1205
a(lp1206
g1167
aS'q'
aaa(lp1207
S'start.facemoods.com'
p1208
a(lp1209
g1167
aS's'
aaa(lp1210
S'start.funmoods.com'
p1211
a(lp1212
g1167
aS'q'
aaa(lp1213
S'search.magentic.com'
p1214
a(lp1215
g1167
aS'q'
aaa(lp1216
S'search.searchcompletion.com'
p1217
a(lp1218
g1167
aS'q'
aaa(lp1219
S'www.searchmobileonline.com'
p1220
a(lp1221
g1167
aS'q'
aaa(lp1222
S'isearch.glarysoft.com'
p1223
a(lp1224
g1167
aS'q'
aaa(lp1225
S'search.chatzum.com'
p1226
a(lp1227
g1167
aS'q'
aaa(lp1228
S'home.speedbit.com'
p1229
a(lp1230
g1167
aS'q'
aaa(lp1231
S'search.b1.org'
p1232
a(lp1233
g1167
aS'q'
aaa(lp1234
S'searchya.com'
p1235
a(lp1236
g1167
aS'q'
aaa(lp1237
S'search.handycafe.com'
p1238
a(lp1239
g1167
aS'q'
aaa(lp1240
S'search.v9.com'
p1241
a(lp1242
g1167
aS'q'
aaa(lp1243
S'search.iminent.com'
p1244
a(lp1245
g1167
aS'q'
aaa(lp1246
S'utorrent.inspsearch.com'
p1247
a(lp1248
g1167
aS'q'
aaa(lp1249
S'www.google.interia.pl'
p1250
a(lp1251
S'Interia'
p1252
aS'q'
aS'szukaj?q={k}'
p1253
aaa(lp1254
S'start.iplay.com'
p1255
a(lp1256
S'I-play'
p1257
aS'q'
aS'searchresults.aspx?q={k}'
p1258
aaa(lp1259
S'ixquick.com'
p1260
a(lp1261
S'Ixquick'
p1262
ag123
aaa(lp1263
S'www.eu.ixquick.com'
p1264
a(lp1265
g1262
aaa(lp1266
S'ixquick.de'
p1267
a(lp1268
g1262
aaa(lp1269
S'www.ixquick.de'
p1270
a(lp1271
g1262
aaa(lp1272
S'us.ixquick.com'
p1273
a(lp1274
g1262
aaa(lp1275
S's1.us.ixquick.com'
p1276
a(lp1277
g1262
aaa(lp1278
S's2.us.ixquick.com'
p1279
a(lp1280
g1262
aaa(lp1281
S's3.us.ixquick.com'
p1282
a(lp1283
g1262
aaa(lp1284
S's4.us.ixquick.com'
p1285
a(lp1286
g1262
aaa(lp1287
S's5.us.ixquick.com'
p1288
a(lp1289
g1262
aaa(lp1290
S'eu.ixquick.com'
p1291
a(lp1292
g1262
aaa(lp1293
S's8-eu.ixquick.com'
p1294
a(lp1295
g1262
aaa(lp1296
S's1-eu.ixquick.de'
p1297
a(lp1298
g1262
aaa(lp1299
S's2-eu4.ixquick.com'
p1300
a(lp1301
g1262
aaa(lp1302
S's5-eu4.ixquick.com'
p1303
a(lp1304
g1262
aaa(lp1305
S'jyxo.1188.cz'
p1306
a(lp1307
S'Jyxo'
p1308
aS'q'
aS's?q={k}'
p1309
aaa(lp1310
S'www.jungle-spider.de'
p1311
a(lp1312
S'Jungle Spider'
p1313
aS'q'
aaa(lp1314
S'junglekey.com'
p1315
a(lp1316
S'Jungle Key'
p1317
ag123
aS'search.php?query={k}&type=web&lang=en'
p1318
aaa(lp1319
S'junglekey.fr'
p1320
a(lp1321
S'Jungle Key'
p1322
aaa(lp1323
S'k9safesearch.com'
p1324
a(lp1325
S'K9 Safe Search'
p1326
aS'q'
aS'search.jsp?q={k}'
p1327
aaa(lp1328
S'www.kataweb.it'
p1329
a(lp1330
S'Kataweb'
p1331
aS'q'
aaa(lp1332
S'www.kvasir.no'
p1333
a(lp1334
S'Kvasir'
p1335
aS'q'
aS'alle?q={k}'
p1336
aaa(lp1337
S'www.latne.lv'
p1338
a(lp1339
S'Latne'
p1340
aS'q'
aS'siets.php?q={k}'
p1341
aaa(lp1342
S'www.toile.com'
p1343
a(lp1344
S'La Toile Du Qu\xc3\xa9bec (Google)'
p1345
aS'q'
aS'search?q={k}'
p1346
aaa(lp1347
S'web.toile.com'
p1348
a(lp1349
S'La Toile Du Qu\xc3\xa9bec (Google)'
p1350
aaa(lp1351
S'www.lookany.com'
p1352
a(lp1353
S'LookAny'
p1354
aS'/(?:search|images|videos)\\/([^\\/]+)/'
p1355
aaa(lp1356
S'www.looksmart.com'
p1357
a(lp1358
S'Looksmart'
p1359
aS'key'
p1360
aaa(lp1361
S'lo.st'
p1362
a(lp1363
S'Lo.st'
p1364
ag698
aS'cgi-bin/eolost.cgi?x_query={k}'
p1365
aaa(lp1366
S'search.lycos.com'
p1367
a(lp1368
S'Lycos'
p1369
ag123
aS'?query={k}'
p1370
aaa(lp1371
S'lycos.{}'
p1372
a(lp1373
g1369
aaa(lp1374
S'www.maailm.com'
p1375
a(lp1376
S'maailm.com'
p1377
aS'tekst'
p1378
aaa(lp1379
S'go.mail.ru'
p1380
a(lp1381
S'Mailru'
p1382
aS'q'
aS'search?rch=e&q={k}'
p1383
a(lp1384
S'UTF-8'
p1385
aS'windows-1251'
p1386
aaaa(lp1387
S'www.mamma.com'
p1388
a(lp1389
S'Mamma'
p1390
ag123
aS'result.php?q={k}'
p1391
aaa(lp1392
S'mamma75.mamma.com'
p1393
a(lp1394
g1390
aaa(lp1395
S'meta.ua'
p1396
a(lp1397
S'Meta.ua'
p1398
aS'q'
aS'search.asp?q={k}'
p1399
aaa(lp1400
S's1.metacrawler.de'
p1401
a(lp1402
S'MetaCrawler DE'
p1403
ag729
aS'?qry={k}'
p1404
aaa(lp1405
S's2.metacrawler.de'
p1406
a(lp1407
S'MetaCrawler DE'
p1408
aaa(lp1409
S's3.metacrawler.de'
p1410
a(lp1411
S'MetaCrawler DE'
p1412
aaa(lp1413
S'meta.rrzn.uni-hannover.de'
p1414
a(lp1415
S'Metager'
p1416
aS'eingabe'
p1417
aS'meta/cgi-bin/meta.ger1?eingabe={k}'
p1418
aaa(lp1419
S'www.metager.de'
p1420
a(lp1421
g1416
aaa(lp1422
S'metager.de'
p1423
a(lp1424
g1416
aaa(lp1425
S'metager2.de'
p1426
a(lp1427
S'Metager2'
p1428
aS'q'
aS'search/index.php?q={k}'
p1429
aaa(lp1430
S'www.meinestadt.de'
p1431
a(lp1432
S'Meinestadt.de'
p1433
ag106
aaa(lp1434
S'www.mister-wong.com'
p1435
a(lp1436
S'Mister Wong'
p1437
aS'keywords'
p1438
aS'search/?keywords={k}'
p1439
aaa(lp1440
S'www.mister-wong.de'
p1441
a(lp1442
S'Mister Wong'
p1443
aaa(lp1444
S'www.monstercrawler.com'
p1445
a(lp1446
S'Monstercrawler'
p1447
ag729
aaa(lp1448
S'www.mozbot.fr'
p1449
a(lp1450
S'mozbot'
p1451
aS'q'
aS'results.php?q={k}'
p1452
aaa(lp1453
S'www.mozbot.co.uk'
p1454
a(lp1455
g1451
aaa(lp1456
S'www.mozbot.com'
p1457
a(lp1458
g1451
aaa(lp1459
S'ariadna.elmundo.es'
p1460
a(lp1461
S'El Mundo'
p1462
aS'q'
aaa(lp1463
S'searchservice.myspace.com'
p1464
a(lp1465
S'MySpace'
p1466
ag729
aS'index.cfm?fuseaction=sitesearch.results&type=Web&qry={k}'
p1467
aaa(lp1468
S'www.mysearch.com'
p1469
a(lp1470
S'MyWebSearch'
p1471
a(lp1472
g276
aS'searchFor'
p1473
aaS'search/Ajmain.jhtml?searchfor={k}'
p1474
aaa(lp1475
S'ms114.mysearch.com'
p1476
a(lp1477
g1471
aaa(lp1478
S'ms146.mysearch.com'
p1479
a(lp1480
g1471
aaa(lp1481
S'kf.mysearch.myway.com'
p1482
a(lp1483
g1471
aaa(lp1484
S'ki.mysearch.myway.com'
p1485
a(lp1486
g1471
aaa(lp1487
S'search.myway.com'
p1488
a(lp1489
g1471
aaa(lp1490
S'search.mywebsearch.com'
p1491
a(lp1492
g1471
aaa(lp1493
S'www.najdi.si'
p1494
a(lp1495
S'Najdi.si'
p1496
aS'q'
aS'search.jsp?q={k}'
p1497
aaa(lp1498
S'search.nate.com'
p1499
a(lp1500
S'Nate'
p1501
aS'q'
aS'search/all.html?q={k}'
p1502
aS'EUC-KR'
p1503
aaa(lp1504
S'search.naver.com'
p1505
a(lp1506
S'Naver'
p1507
ag123
aS'search.naver?query={k}'
p1508
aaa(lp1509
S'ko.search.need2find.com'
p1510
a(lp1511
S'Needtofind'
p1512
ag276
aS'search/AJmain.jhtml?searchfor={k}'
p1513
aaa(lp1514
S'www.neti.ee'
p1515
a(lp1516
S'Neti'
p1517
ag123
aS'cgi-bin/otsing?query={k}'
p1518
aS'iso-8859-1'
p1519
aaa(lp1520
S'search.nifty.com'
p1521
a(lp1522
S'Nifty'
p1523
a(lp1524
S'q'
aS'Text'
p1525
aaS'websearch/search?q={k}'
p1526
aaa(lp1527
S'search.azby.fmworld.net'
p1528
a(lp1529
g1523
aaa(lp1530
S'videosearch.nifty.com'
p1531
a(lp1532
S'Nifty Videos'
p1533
ag392
aS'search?kw={k}'
p1534
aaa(lp1535
S'nigma.ru'
p1536
a(lp1537
S'Nigma'
p1538
aS's'
aS'index.php?s={k}'
p1539
aaa(lp1540
S'szukaj.onet.pl'
p1541
a(lp1542
S'Onet.pl'
p1543
aS'qt'
p1544
aS'query.html?qt={k}'
p1545
aaa(lp1546
S'online.no'
p1547
a(lp1548
S'Online.no'
p1549
aS'q'
aS'google/index.jsp?q={k}'
p1550
aaa(lp1551
S'www.1881.no'
p1552
a(lp1553
S'Opplysningen 1881'
p1554
aS'Query'
p1555
aS'Multi/?Query={k}'
p1556
aaa(lp1557
S'busca.orange.es'
p1558
a(lp1559
S'Orange'
p1560
aS'q'
aS'search?q={k}'
p1561
aaa(lp1562
S'lemoteur.ke.voila.fr'
p1563
a(lp1564
g1560
ag392
aS'?kw={k}'
p1565
aaa(lp1566
S'www.paperball.de'
p1567
a(lp1568
S'Paperball'
p1569
aS'q'
aS'suche/s/?q={k}'
p1570
aaa(lp1571
S'search.peoplepc.com'
p1572
a(lp1573
S'PeoplePC'
p1574
aS'q'
aS'search?q={k}'
p1575
aaa(lp1576
S'extern.peoplecheck.de'
p1577
a(lp1578
S'PeopleCheck'
p1579
aS'q'
aS'link.php?q={k}'
p1580
aaa(lp1581
S'www.picsearch.com'
p1582
a(lp1583
S'Picsearch'
p1584
aS'q'
aS'index.cgi?q={k}'
p1585
aaa(lp1586
S'www.plazoo.com'
p1587
a(lp1588
S'Plazoo'
p1589
aS'q'
aaa(lp1590
S'plusnetwork.com'
p1591
a(lp1592
S'PlusNetwork'
p1593
aS'q'
aS'?q={k}'
p1594
aaa(lp1595
S'poisk.ru'
p1596
a(lp1597
S'Poisk.Ru'
p1598
aS'text'
p1599
aS'cgi-bin/poisk?text={k}'
p1600
aS'windows-1251'
p1601
aaa(lp1602
S'search.qip.ru'
p1603
a(lp1604
S'qip.ru'
p1605
ag123
aS'search?query={k}'
p1606
aaa(lp1607
S'www.qualigo.at'
p1608
a(lp1609
S'Qualigo'
p1610
aS'q'
aaa(lp1611
S'www.qualigo.ch'
p1612
a(lp1613
g1610
aaa(lp1614
S'www.qualigo.de'
p1615
a(lp1616
g1610
aaa(lp1617
S'www.qualigo.nl'
p1618
a(lp1619
g1610
aaa(lp1620
S'www.qwant.com'
p1621
a(lp1622
S'Qwant'
p1623
aS'q'
aaa(lp1624
S'websearch.rakuten.co.jp'
p1625
a(lp1626
S'Rakuten'
p1627
ag1544
aS'WebIS?qt={k}'
p1628
aaa(lp1629
S'nova.rambler.ru'
p1630
a(lp1631
S'Rambler'
p1632
a(lp1633
g123
ag106
aaS'search?query={k}'
p1634
aaa(lp1635
S'rpmfind.net'
p1636
a(lp1637
S'rpmfind'
p1638
ag123
aS'linux/rpm2html/search.php?query={k}'
p1639
aaa(lp1640
S'fr2.rpmfind.net'
p1641
a(lp1642
g1638
aaa(lp1643
S'search.rr.com'
p1644
a(lp1645
S'Road Runner'
p1646
aS'q'
aS'?q={k}'
p1647
aaa(lp1648
S'pesquisa.sapo.pt'
p1649
a(lp1650
S'Sapo'
p1651
aS'q'
aS'?q={k}'
p1652
aaa(lp1653
S'scour.com'
p1654
a(lp1655
S'Scour.com'
p1656
aS'/search\\/[^\\/]+\\/(.*)/'
p1657
aS'search/web/{k}'
p1658
aaa(lp1659
S'www.search.com'
p1660
a(lp1661
S'Search.com'
p1662
aS'q'
aS'search?q={k}'
p1663
aaa(lp1664
S'www.search.ch'
p1665
a(lp1666
S'Search.ch'
p1667
aS'q'
aS'?q={k}'
p1668
aaa(lp1669
S'searchalot.com'
p1670
a(lp1671
S'Searchalot'
p1672
aS'q'
aS'?q={k}'
p1673
aaa(lp1674
S'www.searchcanvas.com'
p1675
a(lp1676
S'SearchCanvas'
p1677
aS'q'
aS'web?q={k}'
p1678
aaa(lp1679
S'www.searchy.co.uk'
p1680
a(lp1681
S'Searchy'
p1682
aS'q'
aS'index.html?q={k}'
p1683
aaa(lp1684
S'bg.setooz.com'
p1685
a(lp1686
S'Setooz'
p1687
ag123
aS'search?query={k}'
p1688
aaa(lp1689
S'da.setooz.com'
p1690
a(lp1691
g1687
aaa(lp1692
S'el.setooz.com'
p1693
a(lp1694
g1687
aaa(lp1695
S'fa.setooz.com'
p1696
a(lp1697
g1687
aaa(lp1698
S'ur.setooz.com'
p1699
a(lp1700
g1687
aaa(lp1701
S'{}.setooz.com'
p1702
a(lp1703
g1687
aaa(lp1704
S'search.seznam.cz'
p1705
a(lp1706
S'Seznam'
p1707
aS'q'
aS'?q={k}'
p1708
aaa(lp1709
S'videa.seznam.cz'
p1710
a(lp1711
S'Seznam Videa'
p1712
aS'q'
aS'?q={k}'
p1713
aaa(lp1714
S'www.sharelook.fr'
p1715
a(lp1716
S'Sharelook'
p1717
ag656
aaa(lp1718
S'www.skynet.be'
p1719
a(lp1720
S'Skynet'
p1721
aS'q'
aS'services/recherche/google?q={k}'
p1722
aaa(lp1723
S'{}.sm.cn'
p1724
a(lp1725
S'sm'
p1726
aS'q'
aS's?q={k}'
p1727
aaa(lp1728
S'm.sm.cn'
p1729
a(lp1730
g1726
aS'q'
aS's?q={k}'
p1731
aaa(lp1732
S'{}.m.sm.cn'
p1733
a(lp1734
g1726
aS'q'
aS's?q={k}'
p1735
aaa(lp1736
S'so.m.sm.cn'
p1737
a(lp1738
g1726
aS'q'
aS's?q={k}'
p1739
aaa(lp1740
S'm.yz.sm.cn'
p1741
a(lp1742
g1726
aS'q'
aS's?q={k}'
p1743
aaa(lp1744
S'ts1.m.sm.cn'
p1745
a(lp1746
g1726
aS'q'
aS's?q={k}'
p1747
aaa(lp1748
S'ts2.m.sm.cn'
p1749
a(lp1750
g1726
aS'q'
aS's?q={k}'
p1751
aaa(lp1752
S'ts3.m.sm.cn'
p1753
a(lp1754
g1726
aS'q'
aS's?q={k}'
p1755
aaa(lp1756
S'm.yz2.sm.cn'
p1757
a(lp1758
g1726
aS'q'
aS's?q={k}'
p1759
aaa(lp1760
S'yz.m.sm.cn'
p1761
a(lp1762
g1726
aS'q'
aS's?q={k}'
p1763
aaa(lp1764
S'm.sp.sm.cn'
p1765
a(lp1766
g1726
aaa(lp1767
S'www.sm.de'
p1768
a(lp1769
S'sm.de'
p1770
aS'q'
aS'?q={k}'
p1771
aaa(lp1772
S'search.smartaddressbar.com'
p1773
a(lp1774
S'SmartAddressbar'
p1775
aS's'
aS'?s={k}'
p1776
aaa(lp1777
S'search.snap.do'
p1778
a(lp1779
S'Snap.do'
p1780
aS'q'
aS'?q={k}'
p1781
aaa(lp1782
S'search.seesaa.jp'
p1783
a(lp1784
S'SeeSaa'
p1785
aS'/\\/([^\\/]+)\\/index\\.html/'
p1786
aS'{k}/index.html'
p1787
aaa(lp1788
S'www.so-net.ne.jp'
p1789
a(lp1790
S'So-net'
p1791
ag123
aS'search/web/?query={k}'
p1792
aaa(lp1793
S'video.so-net.ne.jp'
p1794
a(lp1795
S'So-net Videos'
p1796
ag392
aS'search/?kw={k}'
p1797
aaa(lp1798
S'www.sogou.com'
p1799
a(lp1800
S'Sogou'
p1801
ag123
aS'web?query={k}'
p1802
ag29
aaa(lp1803
S'm.sogou.com'
p1804
a(lp1805
g1801
ag656
aaa(lp1806
S'a.mobi.sogou.com'
p1807
a(lp1808
g1801
ag656
aaa(lp1809
S'wap.sogou.com'
p1810
a(lp1811
g1801
ag656
aaa(lp1812
S'search.softonic.com'
p1813
a(lp1814
S'Softonic'
p1815
aS'q'
aS'default/default?q={k}'
p1816
aaa(lp1817
S'www.soso.com'
p1818
a(lp1819
S'Soso'
p1820
aS'w'
aS'q?w={k}'
p1821
ag29
aaa(lp1822
S'www.sputnik.ru'
p1823
a(lp1824
S'Sputnik'
p1825
aS'q'
aS'search?q={k}'
p1826
aaa(lp1827
S'www.startsiden.no'
p1828
a(lp1829
S'Startsiden'
p1830
aS'q'
aS'sok/index.html?q={k}'
p1831
aaa(lp1832
S'suche.info'
p1833
a(lp1834
S'Suche.info'
p1835
ag260
aS'suche.php?Keywords={k}'
p1836
aaa(lp1837
S'www.suchmaschine.com'
p1838
a(lp1839
S'Suchmaschine.com'
p1840
aS'suchstr'
p1841
aS'cgi-bin/wo.cgi?suchstr={k}'
p1842
aaa(lp1843
S'www.suchnase.de'
p1844
a(lp1845
S'Suchnase'
p1846
aS'q'
aaa(lp1847
S'surfcanyon.com'
p1848
a(lp1849
S'Surf Canyon'
p1850
aS'q'
aaa(lp1851
S'www.talimba.com'
p1852
a(lp1853
S'talimba'
p1854
ag436
aS'index.php?page=search/web&search={k}'
p1855
aaa(lp1856
S'www.talktalk.co.uk'
p1857
a(lp1858
S'TalkTalk'
p1859
ag123
aS'search/results.html?query={k}'
p1860
aaa(lp1861
S'technorati.com'
p1862
a(lp1863
S'Technorati'
p1864
aS'q'
aS'search?return=sites&authority=all&q={k}'
p1865
aaa(lp1866
S'www.teoma.com'
p1867
a(lp1868
S'Teoma'
p1869
aS'q'
aS'web?q={k}'
p1870
aaa(lp1871
S'buscador.terra.es'
p1872
a(lp1873
S'Terra'
p1874
ag123
aS'Default.aspx?source=Search&query={k}'
p1875
aaa(lp1876
S'buscador.terra.cl'
p1877
a(lp1878
g1874
aaa(lp1879
S'buscador.terra.com.br'
p1880
a(lp1881
g1874
aaa(lp1882
S'search.tiscali.it'
p1883
a(lp1884
S'Tiscali'
p1885
a(lp1886
S'q'
ag1360
aaS'?q={k}'
p1887
aaa(lp1888
S'search-dyn.tiscali.it'
p1889
a(lp1890
g1885
aaa(lp1891
S'hledani.tiscali.cz'
p1892
a(lp1893
g1885
ag123
aaa(lp1894
S'www.tixuma.de'
p1895
a(lp1896
S'Tixuma'
p1897
aS'sc'
p1898
aS'index.php?mp=search&stp=&sc={k}&tg=0'
p1899
aaa(lp1900
S'suche.t-online.de'
p1901
a(lp1902
S'T-Online'
p1903
aS'q'
aS'fast-cgi/tsc?mandant=toi&context=internet-tab&q={k}'
p1904
aaa(lp1905
S'brisbane.t-online.de'
p1906
a(lp1907
S'T-Online'
p1908
aaa(lp1909
S'navigationshilfe.t-online.de'
p1910
a(lp1911
S'T-Online'
p1912
aS'q'
aS'dtag/dns/results?mode=search_top&q={k}'
p1913
aaa(lp1914
S'www.toolbarhome.com'
p1915
a(lp1916
S'Toolbarhome'
p1917
aS'q'
aS'search.aspx?q={k}'
p1918
aaa(lp1919
S'vshare.toolbarhome.com'
p1920
a(lp1921
g1917
aaa(lp1922
S'www.toppreise.ch'
p1923
a(lp1924
S'Toppreise.ch'
p1925
ag436
aS'index.php?search={k}'
p1926
aS'ISO-8859-1'
p1927
aaa(lp1928
S'toppreise.ch'
p1929
a(lp1930
S'Toppreise.ch'
p1931
aNaNaS'ISO-8859-1'
p1932
aaa(lp1933
S'fr.toppreise.ch'
p1934
a(lp1935
S'Toppreise.ch'
p1936
aNaNaS'ISO-8859-1'
p1937
aaa(lp1938
S'de.toppreise.ch'
p1939
a(lp1940
S'Toppreise.ch'
p1941
aNaNaS'ISO-8859-1'
p1942
aaa(lp1943
S'en.toppreise.ch'
p1944
a(lp1945
S'Toppreise.ch'
p1946
aNaNaS'ISO-8859-1'
p1947
aaa(lp1948
S'www.trouvez.com'
p1949
a(lp1950
S'Trouvez.com'
p1951
ag123
aaa(lp1952
S'www.trovarapido.com'
p1953
a(lp1954
S'TrovaRapido'
p1955
aS'q'
aS'result.php?q={k}'
p1956
aaa(lp1957
S'www.trusted-search.com'
p1958
a(lp1959
S'Trusted Search'
p1960
aS'w'
aS'search?w={k}'
p1961
aaa(lp1962
S'www.twingly.com'
p1963
a(lp1964
S'Twingly'
p1965
aS'q'
aS'search?q={k}'
p1966
aaa(lp1967
S'busca.uol.com.br'
p1968
a(lp1969
S'uol.com.br'
p1970
aS'q'
aS'/web/?q={k}'
p1971
aaa(lp1972
S'www.url.org'
p1973
a(lp1974
S'URL.ORGanzier'
p1975
aS'q'
aS'?l=de&q={k}'
p1976
aaa(lp1977
S'www.vinden.nl'
p1978
a(lp1979
S'Vinden'
p1980
aS'q'
aS'?q={k}'
p1981
aaa(lp1982
S'www.vindex.nl'
p1983
a(lp1984
S'Vindex'
p1985
ag1150
aS'/web?search_for={k}'
p1986
aaa(lp1987
S'search.vindex.nl'
p1988
a(lp1989
g1985
aaa(lp1990
S'ricerca.virgilio.it'
p1991
a(lp1992
S'Virgilio'
p1993
ag100
aS'ricerca?qs={k}'
p1994
aaa(lp1995
S'ricercaimmagini.virgilio.it'
p1996
a(lp1997
g1993
aaa(lp1998
S'ricercavideo.virgilio.it'
p1999
a(lp2000
g1993
aaa(lp2001
S'ricercanews.virgilio.it'
p2002
a(lp2003
g1993
aaa(lp2004
S'mobile.virgilio.it'
p2005
a(lp2006
g1993
aS'qrs'
p2007
aaa(lp2008
S'search.ke.voila.fr'
p2009
a(lp2010
S'Voila'
p2011
aS'rdata'
p2012
aS'S/voila?rdata={k}'
p2013
aaa(lp2014
S'www.lemoteur.fr'
p2015
a(lp2016
g2011
aaa(lp2017
S'web.volny.cz'
p2018
a(lp2019
S'Volny'
p2020
ag436
aS'fulltext/?search={k}'
p2021
aS'windows-1250'
p2022
aaa(lp2023
S'www.walhello.info'
p2024
a(lp2025
S'Walhello'
p2026
ag1360
aS'search?key={k}'
p2027
aaa(lp2028
S'www.walhello.com'
p2029
a(lp2030
g2026
aaa(lp2031
S'www.walhello.de'
p2032
a(lp2033
g2026
aaa(lp2034
S'www.walhello.nl'
p2035
a(lp2036
g2026
aaa(lp2037
S'suche.web.de'
p2038
a(lp2039
S'Web.de'
p2040
a(lp2041
S'su'
p2042
aS'q'
aaS'search/web/?su={k}'
p2043
aaa(lp2044
S'm.suche.web.de'
p2045
a(lp2046
S'Web.de'
p2047
aaa(lp2048
S'www.web.nl'
p2049
a(lp2050
S'Web.nl'
p2051
aS'zoekwoord'
p2052
aaa(lp2053
S'www.weborama.fr'
p2054
a(lp2055
S'weborama'
p2056
aS'QUERY'
p2057
aaa(lp2058
S'www.websearch.com'
p2059
a(lp2060
S'WebSearch'
p2061
a(lp2062
S'qkw'
p2063
aS'q'
aaS'search/results2.aspx?q={k}'
p2064
aaa(lp2065
S'fr.wedoo.com'
p2066
a(lp2067
S'Wedoo'
p2068
ag656
aaa(lp2069
S'en.wedoo.com'
p2070
a(lp2071
g2068
aaa(lp2072
S'es.wedoo.com'
p2073
a(lp2074
g2068
aaa(lp2075
S'search.winamp.com'
p2076
a(lp2077
S'Winamp'
p2078
aS'q'
aS'search/search?q={k}'
p2079
aaa(lp2080
S'www.witch.de'
p2081
a(lp2082
S'Witch'
p2083
ag436
aS'search-result.php?cn=0&search={k}'
p2084
aaa(lp2085
S'szukaj.wp.pl'
p2086
a(lp2087
S'Wirtualna Polska'
p2088
aS'szukaj'
p2089
aS'http:#szukaj.wp.pl/szukaj.html?szukaj={k}'
p2090
aaa(lp2091
S'www.woopie.jp'
p2092
a(lp2093
S'Woopie'
p2094
ag392
aS'search?kw={k}'
p2095
aaa(lp2096
S'search.www.ee'
p2097
a(lp2098
S'www v\xc3\xa4rav'
p2099
ag123
aaa(lp2100
S'www.x-recherche.com'
p2101
a(lp2102
S'X-Recherche'
p2103
aS'MOTS'
p2104
aS'cgi-bin/websearch?MOTS={k}'
p2105
aaa(lp2106
S'search.yahoo.co.jp'
p2107
a(lp2108
S'Yahoo! Japan'
p2109
a(lp2110
S'p'
aS'vp'
p2111
aaS'search?p={k}'
p2112
aaa(lp2113
S'jp.hao123.com'
p2114
a(lp2115
S'Yahoo! Japan'
p2116
ag123
aaa(lp2117
S'video.search.yahoo.co.jp'
p2118
a(lp2119
S'Yahoo! Japan Videos'
p2120
aS'p'
aS'search?p={k}'
p2121
aaa(lp2122
S'image.search.yahoo.co.jp'
p2123
a(lp2124
S'Yahoo! Japan Images'
p2125
aS'p'
aS'search?p={k}'
p2126
aaa(lp2127
S'search.yahoo.com'
p2128
a(lp2129
S'Yahoo!'
p2130
a(lp2131
S'p'
aS'q'
aaS'search?p={k}'
p2132
aaa(lp2133
S'yahoo.com'
p2134
a(lp2135
S'Yahoo!'
p2136
aaa(lp2137
S'yahoo.{}'
p2138
a(lp2139
S'Yahoo!'
p2140
aaa(lp2141
S'{}.yahoo.com'
p2142
a(lp2143
S'Yahoo!'
p2144
aaa(lp2145
S'cade.yahoo.com'
p2146
a(lp2147
S'Yahoo!'
p2148
aaa(lp2149
S'espanol.yahoo.com'
p2150
a(lp2151
S'Yahoo!'
p2152
aaa(lp2153
S'qc.yahoo.com'
p2154
a(lp2155
S'Yahoo!'
p2156
aaa(lp2157
S'one.cn.yahoo.com'
p2158
a(lp2159
S'Yahoo!'
p2160
aaa(lp2161
S'www.cercato.it'
p2162
a(lp2163
S'Yahoo!'
p2164
aS'q'
aaa(lp2165
S'search.offerbox.com'
p2166
a(lp2167
S'Yahoo!'
p2168
aS'q'
aaa(lp2169
S'www.benefind.de'
p2170
a(lp2171
S'Yahoo!'
p2172
aS'q'
aaa(lp2173
S'ys.mirostart.com'
p2174
a(lp2175
S'Yahoo!'
p2176
aS'q'
aaa(lp2177
S'search.yahoo.com/search/dir'
p2178
a(lp2179
S'Yahoo! Directory'
p2180
aS'p'
aS'?p={k}'
p2181
aaa(lp2182
S'images.search.yahoo.com'
p2183
a(lp2184
S'Yahoo! Images'
p2185
a(lp2186
S'p'
aS'va'
p2187
aaS'search/images?p={k}'
p2188
aaa(lp2189
S'{}.images.yahoo.com'
p2190
a(lp2191
S'Yahoo! Images'
p2192
aaa(lp2193
S'cade.images.yahoo.com'
p2194
a(lp2195
S'Yahoo! Images'
p2196
aaa(lp2197
S'espanol.images.yahoo.com'
p2198
a(lp2199
S'Yahoo! Images'
p2200
aaa(lp2201
S'qc.images.yahoo.com'
p2202
a(lp2203
S'Yahoo! Images'
p2204
aaa(lp2205
S'search.yam.com'
p2206
a(lp2207
S'Yam'
p2208
aS'k'
aS'Search/Web/?SearchType=web&k={k}'
p2209
aaa(lp2210
S'yandex.ru'
p2211
a(lp2212
S'Yandex'
p2213
ag1599
aS'yandsearch?text={k}'
p2214
aaa(lp2215
S'yandex.com'
p2216
a(lp2217
g2213
ag1599
aS'yandsearch?text={k}'
p2218
aaa(lp2219
S'yandex.{}'
p2220
a(lp2221
g2213
aaa(lp2222
S'images.yandex.ru'
p2223
a(lp2224
S'Yandex Images'
p2225
ag1599
aS'yandsearch?text={k}'
p2226
aaa(lp2227
S'images.yandex.com'
p2228
a(lp2229
S'Yandex Images'
p2230
aaa(lp2231
S'images.yandex.{}'
p2232
a(lp2233
S'Yandex Images'
p2234
aaa(lp2235
S'www.yasni.de'
p2236
a(lp2237
S'Yasni'
p2238
ag123
aaa(lp2239
S'www.yasni.com'
p2240
a(lp2241
g2238
aaa(lp2242
S'www.yasni.co.uk'
p2243
a(lp2244
g2238
aaa(lp2245
S'www.yasni.ch'
p2246
a(lp2247
g2238
aaa(lp2248
S'www.yasni.at'
p2249
a(lp2250
g2238
aaa(lp2251
S'www.yatedo.com'
p2252
a(lp2253
S'Yatedo'
p2254
aS'q'
aS'search/profil?q={k}'
p2255
aaa(lp2256
S'www.yatedo.fr'
p2257
a(lp2258
g2254
aaa(lp2259
S'yellowmap.de'
p2260
a(lp2261
S'Yellowmap'
p2262
aS' '
aaa(lp2263
S'search.yippy.com'
p2264
a(lp2265
S'Yippy'
p2266
ag123
aS'search?query={k}'
p2267
aaa(lp2268
S'www.yougoo.fr'
p2269
a(lp2270
S'YouGoo'
p2271
aS'q'
aS'?cx=search&q={k}'
p2272
aaa(lp2273
S'www.zapmeta.com'
p2274
a(lp2275
S'Zapmeta'
p2276
a(lp2277
S'q'
ag123
aaS'?q={k}'
p2278
aaa(lp2279
S'zapmeta.{}'
p2280
a(lp2281
g2276
aaa(lp2282
S'uk.zapmeta.com'
p2283
a(lp2284
g2276
aaa(lp2285
S'ar.zapmeta.com'
p2286
a(lp2287
g2276
aaa(lp2288
S'au.zapmeta.com'
p2289
a(lp2290
g2276
aaa(lp2291
S'ca.zapmeta.com'
p2292
a(lp2293
g2276
aaa(lp2294
S'fi.zapmeta.com'
p2295
a(lp2296
g2276
aaa(lp2297
S'no.zapmeta.com'
p2298
a(lp2299
g2276
aaa(lp2300
S'tr.zapmeta.com'
p2301
a(lp2302
g2276
aaa(lp2303
S'www3.zoek.nl'
p2304
a(lp2305
S'Zoek'
p2306
aS'q'
aaa(lp2307
S'p.zhongsou.com'
p2308
a(lp2309
S'Zhongsou'
p2310
aS'w'
aS'p?w={k}'
p2311
aaa(lp2312
S'www.zoeken.nl'
p2313
a(lp2314
S'Zoeken'
p2315
aS'q'
aS'?q={k}'
p2316
aaa(lp2317
S'zoohoo.cz'
p2318
a(lp2319
S'Zoohoo'
p2320
aS'q'
aS'?q={k}'
p2321
aS'windows-1250'
p2322
aaa(lp2323
S'www.zoznam.sk'
p2324
a(lp2325
S'Zoznam'
p2326
aS's'
aS'hladaj.fcgi?s={k}&co=svet'
p2327
aaa(lp2328
S'www.zxuso.com'
p2329
a(lp2330
S'Zxuso'
p2331
ag390
aS'ri/?wd={k}'
p2332
aaatRp2333
.